
ECCO Uhr.elf:     file format elf32-avr

Sections:
Idx Name          Size      VMA       LMA       File off  Algn
  0 .data         000004cc  00800100  000051f6  0000528a  2**0
                  CONTENTS, ALLOC, LOAD, DATA
  1 .text         000051f6  00000000  00000000  00000094  2**1
                  CONTENTS, ALLOC, LOAD, READONLY, CODE
  2 .bss          000006ab  008005cc  008005cc  00005756  2**0
                  ALLOC
  3 .stab         00000f0c  00000000  00000000  00005758  2**2
                  CONTENTS, READONLY, DEBUGGING
  4 .stabstr      0000032e  00000000  00000000  00006664  2**0
                  CONTENTS, READONLY, DEBUGGING
  5 .debug_aranges 00000060  00000000  00000000  00006992  2**0
                  CONTENTS, READONLY, DEBUGGING
  6 .debug_pubnames 00000059  00000000  00000000  000069f2  2**0
                  CONTENTS, READONLY, DEBUGGING
  7 .debug_info   0000066e  00000000  00000000  00006a4b  2**0
                  CONTENTS, READONLY, DEBUGGING
  8 .debug_abbrev 00000335  00000000  00000000  000070b9  2**0
                  CONTENTS, READONLY, DEBUGGING
  9 .debug_line   000009a9  00000000  00000000  000073ee  2**0
                  CONTENTS, READONLY, DEBUGGING
 10 .debug_frame  00000060  00000000  00000000  00007d98  2**2
                  CONTENTS, READONLY, DEBUGGING
 11 .debug_str    00000207  00000000  00000000  00007df8  2**0
                  CONTENTS, READONLY, DEBUGGING
 12 .debug_loc    000006f1  00000000  00000000  00007fff  2**0
                  CONTENTS, READONLY, DEBUGGING
 13 .debug_pubtypes 000000c4  00000000  00000000  000086f0  2**0
                  CONTENTS, READONLY, DEBUGGING
 14 .debug_ranges 00000048  00000000  00000000  000087b4  2**0
                  CONTENTS, READONLY, DEBUGGING

Disassembly of section .text:

00000000 <__vectors>:
       0:	0c 94 51 05 	jmp	0xaa2	; 0xaa2 <__ctors_end>
       4:	0c 94 6e 05 	jmp	0xadc	; 0xadc <__bad_interrupt>
       8:	0c 94 6e 05 	jmp	0xadc	; 0xadc <__bad_interrupt>
       c:	0c 94 6e 05 	jmp	0xadc	; 0xadc <__bad_interrupt>
      10:	0c 94 6e 05 	jmp	0xadc	; 0xadc <__bad_interrupt>
      14:	0c 94 6e 05 	jmp	0xadc	; 0xadc <__bad_interrupt>
      18:	0c 94 6e 05 	jmp	0xadc	; 0xadc <__bad_interrupt>
      1c:	0c 94 6e 05 	jmp	0xadc	; 0xadc <__bad_interrupt>
      20:	0c 94 6e 05 	jmp	0xadc	; 0xadc <__bad_interrupt>
      24:	0c 94 80 0a 	jmp	0x1500	; 0x1500 <__vector_9>
      28:	0c 94 6e 05 	jmp	0xadc	; 0xadc <__bad_interrupt>
      2c:	0c 94 6e 05 	jmp	0xadc	; 0xadc <__bad_interrupt>
      30:	0c 94 6e 05 	jmp	0xadc	; 0xadc <__bad_interrupt>
      34:	0c 94 c6 09 	jmp	0x138c	; 0x138c <__vector_13>
      38:	0c 94 6e 05 	jmp	0xadc	; 0xadc <__bad_interrupt>
      3c:	0c 94 6e 05 	jmp	0xadc	; 0xadc <__bad_interrupt>
      40:	0c 94 49 09 	jmp	0x1292	; 0x1292 <__vector_16>
      44:	0c 94 6e 05 	jmp	0xadc	; 0xadc <__bad_interrupt>
      48:	0c 94 6e 05 	jmp	0xadc	; 0xadc <__bad_interrupt>
      4c:	0c 94 6e 05 	jmp	0xadc	; 0xadc <__bad_interrupt>
      50:	0c 94 6e 05 	jmp	0xadc	; 0xadc <__bad_interrupt>
      54:	0c 94 6e 05 	jmp	0xadc	; 0xadc <__bad_interrupt>
      58:	0c 94 6e 05 	jmp	0xadc	; 0xadc <__bad_interrupt>
      5c:	0c 94 6e 05 	jmp	0xadc	; 0xadc <__bad_interrupt>
      60:	0c 94 6e 05 	jmp	0xadc	; 0xadc <__bad_interrupt>
      64:	0c 94 6e 05 	jmp	0xadc	; 0xadc <__bad_interrupt>
      68:	0c 94 6e 05 	jmp	0xadc	; 0xadc <__bad_interrupt>
      6c:	0c 94 6e 05 	jmp	0xadc	; 0xadc <__bad_interrupt>

00000070 <font>:
      70:	00 00 00 00 00 00 00 3e 45 51 45 3e 00 3e 6b 6f     .......>EQE>.>ko
      80:	6b 3e 00 1c 3e 7c 3e 1c 00 18 3c 7e 3c 18 00 30     k>..>|>...<~<..0
      90:	36 7f 36 30 00 18 5c 7e 5c 18 00 00 00 00 00 00     6.60..\~\.......
	...
      b0:	00 00 00 30 48 4a 36 0e 00 06 29 79 29 06 00 00     ...0HJ6...)y)...
      c0:	00 00 00 00 00 60 7e 0a 35 3f 00 2a 1c 36 1c 2a     .....`~.5?.*.6.*
      d0:	00 00 7f 3e 1c 08 00 08 1c 3e 7f 00 00 14 36 7f     ...>.....>....6.
      e0:	36 14 00 00 5f 00 5f 00 00 06 09 7f 01 7f 00 22     6..._._........"
      f0:	4d 55 59 22 00 60 60 60 60 00 00 14 b6 ff b6 14     MUY".````.......
     100:	00 04 06 7f 06 04 00 10 30 7f 30 10 00 08 08 3e     ........0.0....>
     110:	1c 08 00 08 1c 3e 08 08 00 78 40 40 40 40 00 08     .....>...x@@@@..
     120:	3e 08 3e 08 00 30 3c 3f 3c 30 00 03 0f 3f 0f 03     >.>..0<?<0...?..
	...
     138:	06 5f 06 00 00 07 03 00 07 03 00 24 7e 24 7e 24     ._.........$~$~$
     148:	00 24 2b 6a 12 00 00 63 13 08 64 63 00 36 49 56     .$+j...c..dc.6IV
     158:	20 50 00 00 07 03 00 00 00 00 3e 41 00 00 00 00      P........>A....
     168:	41 3e 00 00 00 08 3e 1c 3e 08 00 08 08 3e 08 08     A>....>.>....>..
     178:	00 00 e0 60 00 00 00 08 08 08 08 08 00 00 60 60     ...`..........``
     188:	00 00 00 20 10 08 04 02 00 3e 51 49 45 3e 00 00     ... .....>QIE>..
     198:	42 7f 40 00 00 62 51 49 49 46 00 22 49 49 49 36     B.@..bQIIF."III6
     1a8:	00 18 14 12 7f 10 00 2f 49 49 49 31 00 3c 4a 49     ......./III1.<JI
     1b8:	49 30 00 01 71 09 05 03 00 36 49 49 49 36 00 06     I0..q....6III6..
     1c8:	49 49 29 1e 00 00 6c 6c 00 00 00 00 ec 6c 00 00     II)...ll.....l..
     1d8:	00 08 14 22 41 00 00 24 24 24 24 24 00 00 41 22     ..."A..$$$$$..A"
     1e8:	14 08 00 02 01 59 09 06 00 3e 41 5d 55 1e 00 7e     .....Y...>A]U..~
     1f8:	11 11 11 7e 00 7f 49 49 49 36 00 3e 41 41 41 22     ...~..III6.>AAA"
     208:	00 7f 41 41 41 3e 00 7f 49 49 49 41 00 7f 09 09     ..AAA>..IIIA....
     218:	09 01 00 3e 41 49 49 7a 00 7f 08 08 08 7f 00 00     ...>AIIz........
     228:	41 7f 41 00 00 30 40 40 40 3f 00 7f 08 14 22 41     A.A..0@@@?...."A
     238:	00 7f 40 40 40 40 00 7f 02 04 02 7f 00 7f 02 04     ..@@@@..........
     248:	08 7f 00 3e 41 41 41 3e 00 7f 09 09 09 06 00 3e     ...>AAA>.......>
     258:	41 51 21 5e 00 7f 09 09 19 66 00 26 49 49 49 32     AQ!^.....f.&III2
     268:	00 01 01 7f 01 01 00 3f 40 40 40 3f 00 1f 20 40     .......?@@@?.. @
     278:	20 1f 00 3f 40 3c 40 3f 00 63 14 08 14 63 00 07      ..?@<@?.c...c..
     288:	08 70 08 07 00 71 49 45 43 00 00 00 7f 41 41 00     .p...qIEC....AA.
     298:	00 02 04 08 10 20 00 00 41 41 7f 00 00 04 02 01     ..... ..AA......
     2a8:	02 04 80 80 80 80 80 80 00 00 03 07 00 00 00 20     ............... 
     2b8:	54 54 54 78 00 7f 44 44 44 38 00 38 44 44 44 28     TTTx..DDD8.8DDD(
     2c8:	00 38 44 44 44 7f 00 38 54 54 54 08 00 08 7e 09     .8DDD..8TTT...~.
     2d8:	09 00 00 18 a4 a4 a4 7c 00 7f 04 04 78 00 00 00     .......|....x...
     2e8:	00 7d 40 00 00 40 80 84 7d 00 00 7f 10 28 44 00     .}@..@..}....(D.
     2f8:	00 00 00 7f 40 00 00 7c 04 18 04 78 00 7c 04 04     ....@..|...x.|..
     308:	78 00 00 38 44 44 44 38 00 fc 44 44 44 38 00 38     x..8DDD8..DDD8.8
     318:	44 44 44 fc 00 44 78 44 04 08 00 08 54 54 54 20     DDD..DxD....TTT 
     328:	00 04 3e 44 24 00 00 3c 40 20 7c 00 00 1c 20 40     ..>D$..<@ |... @
     338:	20 1c 00 3c 60 30 60 3c 00 6c 10 10 6c 00 00 9c      ..<`0`<.l..l...
     348:	a0 60 3c 00 00 64 54 54 4c 00 00 08 3e 41 41 00     .`<..dTTL...>AA.
     358:	00 00 00 77 00 00 00 00 41 41 3e 08 00 02 01 02     ...w....AA>.....
     368:	01 00 00 3c 26 23 26 3c 00 1e a1 e1 21 12 00 3d     ...<&#&<....!..=
     378:	40 20 7d 00 00 38 54 54 55 09 00 20 55 55 55 78     @ }..8TTU.. UUUx
     388:	00 20 55 54 55 78 00 20 55 55 54 78 00 20 57 55     . UTUx. UUTx. WU
     398:	57 78 00 1c a2 e2 22 14 00 38 55 55 55 08 00 38     Wx...."..8UUU..8
     3a8:	55 54 55 08 00 38 55 55 54 08 00 00 01 7c 41 00     UTU..8UUT....|A.
     3b8:	00 00 01 7d 41 00 00 00 01 7c 40 00 00 70 29 24     ...}A....|@..p)$
     3c8:	29 70 00 78 2f 25 2f 78 00 7c 54 54 55 45 00 34     )p.x/%/x.|TTUE.4
     3d8:	54 7c 54 58 00 7e 09 7f 49 49 00 38 45 45 39 00     T|TX.~..II.8EE9.
     3e8:	00 38 45 44 39 00 00 39 45 44 38 00 00 3c 41 21     .8ED9..9ED8..<A!
     3f8:	7d 00 00 3d 41 20 7c 00 00 9c a1 60 3d 00 00 3d     }..=A |....`=..=
     408:	42 42 3d 00 00 3c 41 40 3d 00 80 70 68 58 38 04     BB=..<A@=..phX8.
     418:	00 48 3e 49 49 62 00 7e 61 5d 43 3f 00 22 14 08     .H>IIb.~a]C?."..
     428:	14 22 00 40 88 7e 09 02 00 20 54 55 55 78 00 00     .".@.~... TUUx..
     438:	00 7d 41 00 00 38 44 45 39 00 00 3c 40 21 7d 00     .}A..8DE9..<@!}.
     448:	00 7a 09 0a 71 00 00 7a 11 22 79 00 00 08 55 55     .z..q..z."y...UU
     458:	55 5e 00 4e 51 51 4e 00 00 30 48 4d 40 20 3e 41     U^.NQQN..0HM@ >A
     468:	5d 4b 55 3e 04 04 04 04 04 1c 00 17 08 4c 6a 50     ]KU>.........LjP
     478:	00 17 08 34 2a 78 00 00 30 7d 30 00 00 08 14 00     ...4*x..0}0.....
     488:	08 14 00 14 08 00 14 08 44 11 44 11 44 11 aa 55     ........D.D.D..U
     498:	aa 55 aa 55 bb ee bb ee bb ee 00 00 00 ff 00 00     .U.U............
     4a8:	08 08 08 ff 00 00 00 70 28 25 29 70 00 70 29 25     .......p(%)p.p)%
     4b8:	29 70 00 70 29 25 28 70 3e 41 5d 55 41 3e 0a fb     )p.p)%(p>A]UA>..
     4c8:	00 ff 00 00 00 ff 00 ff 00 00 0a fa 02 fe 00 00     ................
     4d8:	0a 0b 08 0f 00 00 00 18 24 66 24 00 00 29 2a 7c     ........$f$..)*|
     4e8:	2a 29 08 08 08 f8 00 00 00 00 00 0f 08 08 08 08     *)..............
     4f8:	08 0f 08 08 08 08 08 f8 08 08 00 00 00 ff 08 08     ................
     508:	08 08 08 08 08 08 08 08 08 ff 08 08 00 20 56 55     ............. VU
     518:	56 79 00 70 2a 25 2a 71 00 0f 08 0b 0a 0a 00 fe     Vy.p*%*q........
     528:	02 fa 0a 0a 0a 0b 08 0b 0a 0a 0a fa 02 fa 0a 0a     ................
     538:	00 ff 00 fb 0a 0a 0a 0a 0a 0a 0a 0a 0a fb 00 fb     ................
     548:	0a 0a 00 5d 22 22 22 5d 00 22 55 59 30 00 00 08     ...]"""]."UY0...
     558:	7f 49 41 3e 00 7c 55 55 55 44 00 7c 55 54 55 44     .IA>.|UUUD.|UTUD
     568:	00 7c 55 55 54 44 00 00 00 07 00 00 00 00 44 7d     .|UUTD........D}
     578:	45 00 00 00 45 7d 45 00 00 00 45 7c 45 00 08 08     E...E}E...E|E...
     588:	08 0f 00 00 00 00 00 f8 08 08 ff ff ff ff ff ff     ................
     598:	f0 f0 f0 f0 f0 f0 00 00 00 77 00 00 00 00 45 7d     .........w....E}
     5a8:	44 00 0f 0f 0f 0f 0f 0f 00 3c 42 43 3d 00 00 fe     D........<BC=...
     5b8:	4a 4a 34 00 00 3c 43 43 3d 00 00 3d 43 42 3c 00     JJ4..<CC=..=CB<.
     5c8:	00 32 49 4a 31 00 00 3a 45 46 39 00 00 fc 20 20     .2IJ1..:EF9...  
     5d8:	1c 00 00 fe aa 28 10 00 00 ff a5 24 18 00 00 3c     .....(.....$...<
     5e8:	40 41 3d 00 00 3c 41 41 3d 00 00 3d 41 40 3c 00     @A=..<AA=..=A@<.
     5f8:	00 9c a0 61 3d 00 00 04 08 71 09 04 00 00 02 02     ...a=....q......
     608:	02 00 00 00 07 03 00 00 00 00 08 08 08 00 00 00     ................
     618:	24 2e 24 00 00 24 24 24 24 24 05 17 0a 34 2a 78     $.$..$$$$$...4*x
     628:	00 06 09 7f 01 7f 00 22 4d 55 59 22 00 08 08 2a     ......."MUY"...*
     638:	08 08 00 00 08 18 18 00 00 06 09 09 06 00 00 00     ................
     648:	08 00 08 00 00 00 08 00 00 00 00 02 0f 00 00 00     ................
     658:	00 09 0f 05 00 00 00 09 0d 0a 00 00 00 3c 3c 3c     .............<<<
     668:	3c 00 00 00 00 00 00 00                             <.......

00000670 <font_big>:
     670:	00 00 00 80 ff 03 f0 ff 1f f8 ff 3f 7c 00 7c 1c     ...........?|.|.
     680:	00 70 0e 00 e0 0e 00 e0 0e 00 e0 0e 00 e0 0e 00     .p..............
     690:	e0 1c 00 70 7c 00 7c f8 ff 3f f0 ff 1f 80 ff 03     ...p|.|..?......
	...
     6ac:	00 00 00 70 00 e0 70 00 e0 70 00 e0 78 00 e0 fc     ...p..p..p..x...
     6bc:	ff ff fe ff ff fe ff ff 00 00 e0 00 00 e0 00 00     ................
     6cc:	e0 00 00 e0 00 00 00 00 00 00 00 00 00 00 00 00     ................
     6dc:	3c 00 f0 1c 00 f8 1c 00 fc 0e 00 ee 0e 00 ef 0e     <...............
     6ec:	80 e7 0e c0 e3 0e e0 e1 1e f0 e0 3c 7c e0 fc 1f     ...........<|...
     6fc:	e0 f8 0f e0 f0 03 e0 00 00 e0 00 00 00 00 00 00     ................
     70c:	00 00 00 00 00 78 3c 00 70 1c 00 70 1c 00 e0 0e     .....x<.p..p....
     71c:	00 e0 0e 1c e0 0e 1c e0 0e 1c e0 0e 1c e0 0e 3e     ...............>
     72c:	70 1c 77 78 fc f3 3f f8 e1 1f f0 c0 0f 00 00 00     p.wx..?.........
     73c:	00 00 00 00 f0 00 00 f8 00 00 ee 00 00 e7 00 80     ................
     74c:	e3 00 c0 e1 00 e0 e0 00 70 e0 00 18 e0 00 0c e0     ........p.......
     75c:	00 fe ff ff fe ff ff fe ff ff 00 e0 00 00 e0 00     ................
     76c:	00 e0 00 00 00 00 00 00 00 00 00 78 fe 3f 70 fe     ...........x.?p.
     77c:	3f f0 fe 1f e0 0e 1c e0 0e 1c e0 0e 1c e0 0e 1c     ?...............
     78c:	e0 0e 1c e0 0e 3c 70 0e 78 78 0e f8 3f 0e f0 1f     .....<p.xx..?...
     79c:	0e c0 07 00 00 00 00 00 00 00 fe 03 c0 ff 1f e0     ................
     7ac:	ff 3f f8 1c 7c 38 0c 70 1c 0e f0 1c 0e e0 0e 0e     .?..|8.p........
     7bc:	e0 0e 0e e0 0e 0e e0 0e 1e 70 0e 3c 78 1e fc 3f     .........p.<x..?
     7cc:	00 f8 1f 00 e0 07 00 00 00 00 00 00 00 00 00 0e     ................
     7dc:	00 00 0e 00 80 0e 00 e0 0e 00 f0 0e 00 7c 0e 00     .............|..
     7ec:	1f 0e c0 0f 0e e0 03 0e f8 00 0e 3e 00 8e 1f 00     ...........>....
     7fc:	ce 07 00 fe 01 00 7e 00 00 3e 00 00 00 00 00 00     ......~..>......
     80c:	80 0f f0 c1 3f f8 e3 7f fc 77 78 1c 3f f0 0e 1e     ....?....wx.?...
     81c:	e0 0e 1c e0 0e 1c e0 0e 18 e0 0e 38 e0 1c 3c f0     ...........8..<.
     82c:	fc 77 78 f8 e7 3f f0 c1 1f 00 80 0f 00 00 00 00     .wx..?..........
     83c:	00 00 c0 0f 00 f0 3f 00 f8 7f f0 3c 78 e0 1c f0     ......?....<x...
     84c:	e0 0e e0 e0 0e e0 e0 0e e0 e0 0e e0 70 1e e0 70     ............p..p
     85c:	1c 60 38 7c 70 3e f8 ff 0f f0 ff 07 80 ff 00 00     .`8|p>..........
	...
     880:	f0 00 1e f0 00 1e f0 00 1e f0 00 1e 00 00 00 00     ................
	...

000008a1 <font_gecco>:
	...
     8b1:	00 00 38 00 00 00 00 00 00 40 3c 00 00 00 00 00     ..8......@<.....
     8c1:	00 e0 b9 01 00 00 00 00 00 e0 db 01 00 00 00 00     ................
     8d1:	00 e0 db 01 00 00 00 00 00 c0 ff 03 00 00 00 00     ................
     8e1:	00 00 fc 1f 00 00 00 00 00 c0 ff 3f 00 00 00 00     ...........?....
     8f1:	00 e0 ff 3f 00 00 00 00 00 e0 df 3f 00 00 00 00     ...?.......?....
     901:	00 c0 dd 1f 00 00 00 00 00 00 fe 0f 00 00 00 00     ................
     911:	00 00 f0 07 00 00 00 00 00 00 f0 ff 03 00 00 00     ................
     921:	00 00 f8 ff 1f 00 00 00 00 00 f8 ff 7f 00 00 00     ................
     931:	00 00 fe ff ff 00 00 00 00 80 ff ff ff 01 00 00     ................
     941:	00 fc ff ff ff 03 00 00 80 ff ff ff ff 07 00 00     ................
     951:	80 ff ff ff ff 0f 00 00 c0 ff ff ff ff 0f 00 00     ................
     961:	e0 ff ff ff ff 1f 00 00 f0 ff ff ff ff 1f 00 00     ................
     971:	f8 ff ff ff ff 3f 00 00 fc ff e7 ff ff 3f 00 00     .....?.......?..
     981:	fe ff fb ff ff 7f 78 00 fe ff ff ff ff 7f fe 00     ......x.........
     991:	7e f8 fd bf ff ff ff 00 7e f8 f1 3f ff ff ff 00     ~.......~..?....
     9a1:	bc fb c0 3f fe ff ff 04 3c 7a fe 3f fc ff ff 0e     ...?....<z.?....
     9b1:	7c 78 bf 07 f8 ff ff 0f fc 3f 9e cd ff ff f7 07     |x.......?......
     9c1:	fc 1f ce fd ff ff f0 03 fc 0f c0 f9 ff ff f0 ff     ................
     9d1:	fc 07 c0 f9 ff 7f fe ff fc 03 80 f8 9f 7f de f3     ................
     9e1:	fc 00 00 fe 81 7f ee 06 38 00 00 ff 89 ff f0 1e     ........8.......
     9f1:	00 00 00 ff 9f ff f0 3e 00 00 00 fe bf ff 70 3e     .......>......p>
     a01:	00 00 00 f8 99 7f 70 1e 10 00 00 fe c7 7f 00 08     ......p.........
     a11:	10 00 00 6f df 7f 00 00 20 00 80 ef de 7f 00 00     ...o.... .......
     a21:	60 00 80 f7 fc 3f 00 00 40 00 00 f3 ec 3f 00 00     `....?..@....?..
     a31:	c0 00 00 f0 f0 3f 00 00 80 01 00 f0 f0 1f 00 00     .....?..........
     a41:	80 03 00 60 f8 1f 00 00 00 07 00 00 fc 0f 00 00     ...`............
     a51:	00 1e 00 00 fe 07 00 00 00 3c 00 00 ff 07 00 00     .........<......
     a61:	00 f8 00 c0 ff 03 00 00 00 f0 03 f0 ff 00 00 00     ................
     a71:	00 e0 ff ff 7f 00 00 00 00 80 ff ff 3f 00 00 00     ............?...
     a81:	00 00 ff ff 0f 00 00 00 00 00 f8 ff 01 00 00 00     ................
     a91:	00 00 80 1f 00 00 00 00 00 00 00 00 00 00 00 00     ................
	...

00000aa2 <__ctors_end>:
     aa2:	11 24       	eor	r1, r1
     aa4:	1f be       	out	0x3f, r1	; 63
     aa6:	cf ef       	ldi	r28, 0xFF	; 255
     aa8:	d0 e1       	ldi	r29, 0x10	; 16
     aaa:	de bf       	out	0x3e, r29	; 62
     aac:	cd bf       	out	0x3d, r28	; 61

00000aae <__do_copy_data>:
     aae:	15 e0       	ldi	r17, 0x05	; 5
     ab0:	a0 e0       	ldi	r26, 0x00	; 0
     ab2:	b1 e0       	ldi	r27, 0x01	; 1
     ab4:	e6 ef       	ldi	r30, 0xF6	; 246
     ab6:	f1 e5       	ldi	r31, 0x51	; 81
     ab8:	02 c0       	rjmp	.+4      	; 0xabe <__do_copy_data+0x10>
     aba:	05 90       	lpm	r0, Z+
     abc:	0d 92       	st	X+, r0
     abe:	ac 3c       	cpi	r26, 0xCC	; 204
     ac0:	b1 07       	cpc	r27, r17
     ac2:	d9 f7       	brne	.-10     	; 0xaba <__do_copy_data+0xc>

00000ac4 <__do_clear_bss>:
     ac4:	1c e0       	ldi	r17, 0x0C	; 12
     ac6:	ac ec       	ldi	r26, 0xCC	; 204
     ac8:	b5 e0       	ldi	r27, 0x05	; 5
     aca:	01 c0       	rjmp	.+2      	; 0xace <.do_clear_bss_start>

00000acc <.do_clear_bss_loop>:
     acc:	1d 92       	st	X+, r1

00000ace <.do_clear_bss_start>:
     ace:	a7 37       	cpi	r26, 0x77	; 119
     ad0:	b1 07       	cpc	r27, r17
     ad2:	e1 f7       	brne	.-8      	; 0xacc <.do_clear_bss_loop>
     ad4:	0e 94 38 0c 	call	0x1870	; 0x1870 <main>
     ad8:	0c 94 f9 28 	jmp	0x51f2	; 0x51f2 <_exit>

00000adc <__bad_interrupt>:
     adc:	0c 94 00 00 	jmp	0	; 0x0 <__vectors>

00000ae0 <button_init>:
     ae0:	10 92 dd 05 	sts	0x05DD, r1
     ae4:	10 92 de 05 	sts	0x05DE, r1
     ae8:	10 92 dc 05 	sts	0x05DC, r1
     aec:	08 95       	ret

00000aee <button_poll>:
     aee:	04 99       	sbic	0x00, 4	; 0
     af0:	17 c0       	rjmp	.+46     	; 0xb20 <button_poll+0x32>
     af2:	80 91 cc 05 	lds	r24, 0x05CC
     af6:	8a 30       	cpi	r24, 0x0A	; 10
     af8:	20 f4       	brcc	.+8      	; 0xb02 <button_poll+0x14>
     afa:	8f 5f       	subi	r24, 0xFF	; 255
     afc:	80 93 cc 05 	sts	0x05CC, r24
     b00:	26 c0       	rjmp	.+76     	; 0xb4e <button_poll+0x60>
     b02:	90 91 de 05 	lds	r25, 0x05DE
     b06:	80 91 dd 05 	lds	r24, 0x05DD
     b0a:	90 fd       	sbrc	r25, 0
     b0c:	05 c0       	rjmp	.+10     	; 0xb18 <button_poll+0x2a>
     b0e:	81 60       	ori	r24, 0x01	; 1
     b10:	80 93 dd 05 	sts	0x05DD, r24
     b14:	91 60       	ori	r25, 0x01	; 1
     b16:	19 c0       	rjmp	.+50     	; 0xb4a <button_poll+0x5c>
     b18:	8e 7f       	andi	r24, 0xFE	; 254
     b1a:	80 93 dd 05 	sts	0x05DD, r24
     b1e:	17 c0       	rjmp	.+46     	; 0xb4e <button_poll+0x60>
     b20:	80 91 dd 05 	lds	r24, 0x05DD
     b24:	8e 7f       	andi	r24, 0xFE	; 254
     b26:	80 93 dd 05 	sts	0x05DD, r24
     b2a:	90 91 de 05 	lds	r25, 0x05DE
     b2e:	80 91 dc 05 	lds	r24, 0x05DC
     b32:	90 ff       	sbrs	r25, 0
     b34:	06 c0       	rjmp	.+12     	; 0xb42 <button_poll+0x54>
     b36:	81 60       	ori	r24, 0x01	; 1
     b38:	80 93 dc 05 	sts	0x05DC, r24
     b3c:	10 92 cc 05 	sts	0x05CC, r1
     b40:	03 c0       	rjmp	.+6      	; 0xb48 <button_poll+0x5a>
     b42:	8e 7f       	andi	r24, 0xFE	; 254
     b44:	80 93 dc 05 	sts	0x05DC, r24
     b48:	9e 7f       	andi	r25, 0xFE	; 254
     b4a:	90 93 de 05 	sts	0x05DE, r25
     b4e:	05 99       	sbic	0x00, 5	; 0
     b50:	17 c0       	rjmp	.+46     	; 0xb80 <button_poll+0x92>
     b52:	80 91 cc 05 	lds	r24, 0x05CC
     b56:	8a 30       	cpi	r24, 0x0A	; 10
     b58:	20 f4       	brcc	.+8      	; 0xb62 <button_poll+0x74>
     b5a:	8f 5f       	subi	r24, 0xFF	; 255
     b5c:	80 93 cc 05 	sts	0x05CC, r24
     b60:	26 c0       	rjmp	.+76     	; 0xbae <button_poll+0xc0>
     b62:	90 91 de 05 	lds	r25, 0x05DE
     b66:	80 91 dd 05 	lds	r24, 0x05DD
     b6a:	91 fd       	sbrc	r25, 1
     b6c:	05 c0       	rjmp	.+10     	; 0xb78 <button_poll+0x8a>
     b6e:	82 60       	ori	r24, 0x02	; 2
     b70:	80 93 dd 05 	sts	0x05DD, r24
     b74:	92 60       	ori	r25, 0x02	; 2
     b76:	19 c0       	rjmp	.+50     	; 0xbaa <button_poll+0xbc>
     b78:	8d 7f       	andi	r24, 0xFD	; 253
     b7a:	80 93 dd 05 	sts	0x05DD, r24
     b7e:	17 c0       	rjmp	.+46     	; 0xbae <button_poll+0xc0>
     b80:	80 91 dd 05 	lds	r24, 0x05DD
     b84:	8d 7f       	andi	r24, 0xFD	; 253
     b86:	80 93 dd 05 	sts	0x05DD, r24
     b8a:	90 91 de 05 	lds	r25, 0x05DE
     b8e:	80 91 dc 05 	lds	r24, 0x05DC
     b92:	91 ff       	sbrs	r25, 1
     b94:	06 c0       	rjmp	.+12     	; 0xba2 <button_poll+0xb4>
     b96:	82 60       	ori	r24, 0x02	; 2
     b98:	80 93 dc 05 	sts	0x05DC, r24
     b9c:	10 92 cc 05 	sts	0x05CC, r1
     ba0:	03 c0       	rjmp	.+6      	; 0xba8 <button_poll+0xba>
     ba2:	8d 7f       	andi	r24, 0xFD	; 253
     ba4:	80 93 dc 05 	sts	0x05DC, r24
     ba8:	9d 7f       	andi	r25, 0xFD	; 253
     baa:	90 93 de 05 	sts	0x05DE, r25
     bae:	07 99       	sbic	0x00, 7	; 0
     bb0:	17 c0       	rjmp	.+46     	; 0xbe0 <button_poll+0xf2>
     bb2:	80 91 cc 05 	lds	r24, 0x05CC
     bb6:	8a 30       	cpi	r24, 0x0A	; 10
     bb8:	20 f4       	brcc	.+8      	; 0xbc2 <button_poll+0xd4>
     bba:	8f 5f       	subi	r24, 0xFF	; 255
     bbc:	80 93 cc 05 	sts	0x05CC, r24
     bc0:	26 c0       	rjmp	.+76     	; 0xc0e <button_poll+0x120>
     bc2:	90 91 de 05 	lds	r25, 0x05DE
     bc6:	80 91 dd 05 	lds	r24, 0x05DD
     bca:	92 fd       	sbrc	r25, 2
     bcc:	05 c0       	rjmp	.+10     	; 0xbd8 <button_poll+0xea>
     bce:	84 60       	ori	r24, 0x04	; 4
     bd0:	80 93 dd 05 	sts	0x05DD, r24
     bd4:	94 60       	ori	r25, 0x04	; 4
     bd6:	19 c0       	rjmp	.+50     	; 0xc0a <button_poll+0x11c>
     bd8:	8b 7f       	andi	r24, 0xFB	; 251
     bda:	80 93 dd 05 	sts	0x05DD, r24
     bde:	17 c0       	rjmp	.+46     	; 0xc0e <button_poll+0x120>
     be0:	80 91 dd 05 	lds	r24, 0x05DD
     be4:	8b 7f       	andi	r24, 0xFB	; 251
     be6:	80 93 dd 05 	sts	0x05DD, r24
     bea:	90 91 de 05 	lds	r25, 0x05DE
     bee:	80 91 dc 05 	lds	r24, 0x05DC
     bf2:	92 ff       	sbrs	r25, 2
     bf4:	06 c0       	rjmp	.+12     	; 0xc02 <button_poll+0x114>
     bf6:	84 60       	ori	r24, 0x04	; 4
     bf8:	80 93 dc 05 	sts	0x05DC, r24
     bfc:	10 92 cc 05 	sts	0x05CC, r1
     c00:	03 c0       	rjmp	.+6      	; 0xc08 <button_poll+0x11a>
     c02:	8b 7f       	andi	r24, 0xFB	; 251
     c04:	80 93 dc 05 	sts	0x05DC, r24
     c08:	9b 7f       	andi	r25, 0xFB	; 251
     c0a:	90 93 de 05 	sts	0x05DE, r25
     c0e:	06 99       	sbic	0x00, 6	; 0
     c10:	17 c0       	rjmp	.+46     	; 0xc40 <button_poll+0x152>
     c12:	80 91 cc 05 	lds	r24, 0x05CC
     c16:	8a 30       	cpi	r24, 0x0A	; 10
     c18:	20 f4       	brcc	.+8      	; 0xc22 <button_poll+0x134>
     c1a:	8f 5f       	subi	r24, 0xFF	; 255
     c1c:	80 93 cc 05 	sts	0x05CC, r24
     c20:	08 95       	ret
     c22:	90 91 de 05 	lds	r25, 0x05DE
     c26:	80 91 dd 05 	lds	r24, 0x05DD
     c2a:	93 fd       	sbrc	r25, 3
     c2c:	05 c0       	rjmp	.+10     	; 0xc38 <button_poll+0x14a>
     c2e:	88 60       	ori	r24, 0x08	; 8
     c30:	80 93 dd 05 	sts	0x05DD, r24
     c34:	98 60       	ori	r25, 0x08	; 8
     c36:	19 c0       	rjmp	.+50     	; 0xc6a <button_poll+0x17c>
     c38:	87 7f       	andi	r24, 0xF7	; 247
     c3a:	80 93 dd 05 	sts	0x05DD, r24
     c3e:	08 95       	ret
     c40:	80 91 dd 05 	lds	r24, 0x05DD
     c44:	87 7f       	andi	r24, 0xF7	; 247
     c46:	80 93 dd 05 	sts	0x05DD, r24
     c4a:	90 91 de 05 	lds	r25, 0x05DE
     c4e:	80 91 dc 05 	lds	r24, 0x05DC
     c52:	93 ff       	sbrs	r25, 3
     c54:	06 c0       	rjmp	.+12     	; 0xc62 <button_poll+0x174>
     c56:	88 60       	ori	r24, 0x08	; 8
     c58:	80 93 dc 05 	sts	0x05DC, r24
     c5c:	10 92 cc 05 	sts	0x05CC, r1
     c60:	03 c0       	rjmp	.+6      	; 0xc68 <button_poll+0x17a>
     c62:	87 7f       	andi	r24, 0xF7	; 247
     c64:	80 93 dc 05 	sts	0x05DC, r24
     c68:	97 7f       	andi	r25, 0xF7	; 247
     c6a:	90 93 de 05 	sts	0x05DE, r25
     c6e:	08 95       	ret

00000c70 <button_is_down>:
     c70:	21 e0       	ldi	r18, 0x01	; 1
     c72:	30 e0       	ldi	r19, 0x00	; 0
     c74:	02 c0       	rjmp	.+4      	; 0xc7a <button_is_down+0xa>
     c76:	22 0f       	add	r18, r18
     c78:	33 1f       	adc	r19, r19
     c7a:	8a 95       	dec	r24
     c7c:	e2 f7       	brpl	.-8      	; 0xc76 <button_is_down+0x6>
     c7e:	80 91 dd 05 	lds	r24, 0x05DD
     c82:	82 23       	and	r24, r18
     c84:	08 95       	ret

00000c86 <button_is_up>:
     c86:	21 e0       	ldi	r18, 0x01	; 1
     c88:	30 e0       	ldi	r19, 0x00	; 0
     c8a:	02 c0       	rjmp	.+4      	; 0xc90 <button_is_up+0xa>
     c8c:	22 0f       	add	r18, r18
     c8e:	33 1f       	adc	r19, r19
     c90:	8a 95       	dec	r24
     c92:	e2 f7       	brpl	.-8      	; 0xc8c <button_is_up+0x6>
     c94:	80 91 dc 05 	lds	r24, 0x05DC
     c98:	82 23       	and	r24, r18
     c9a:	08 95       	ret

00000c9c <button_is_hold>:
     c9c:	21 e0       	ldi	r18, 0x01	; 1
     c9e:	30 e0       	ldi	r19, 0x00	; 0
     ca0:	02 c0       	rjmp	.+4      	; 0xca6 <button_is_hold+0xa>
     ca2:	22 0f       	add	r18, r18
     ca4:	33 1f       	adc	r19, r19
     ca6:	8a 95       	dec	r24
     ca8:	e2 f7       	brpl	.-8      	; 0xca2 <button_is_hold+0x6>
     caa:	80 91 de 05 	lds	r24, 0x05DE
     cae:	82 23       	and	r24, r18
     cb0:	08 95       	ret

00000cb2 <config_read>:
     cb2:	8f ed       	ldi	r24, 0xDF	; 223
     cb4:	95 e0       	ldi	r25, 0x05	; 5
     cb6:	60 e0       	ldi	r22, 0x00	; 0
     cb8:	70 e0       	ldi	r23, 0x00	; 0
     cba:	4d e2       	ldi	r20, 0x2D	; 45
     cbc:	50 e0       	ldi	r21, 0x00	; 0
     cbe:	0e 94 fa 27 	call	0x4ff4	; 0x4ff4 <__eerd_block_m644>
     cc2:	80 91 df 05 	lds	r24, 0x05DF
     cc6:	8c 3e       	cpi	r24, 0xEC	; 236
     cc8:	09 f0       	breq	.+2      	; 0xccc <config_read+0x1a>
     cca:	83 c0       	rjmp	.+262    	; 0xdd2 <config_read+0x120>
     ccc:	80 91 e0 05 	lds	r24, 0x05E0
     cd0:	80 3c       	cpi	r24, 0xC0	; 192
     cd2:	09 f0       	breq	.+2      	; 0xcd6 <config_read+0x24>
     cd4:	7e c0       	rjmp	.+252    	; 0xdd2 <config_read+0x120>
     cd6:	80 91 0a 06 	lds	r24, 0x060A
     cda:	80 3e       	cpi	r24, 0xE0	; 224
     cdc:	09 f0       	breq	.+2      	; 0xce0 <config_read+0x2e>
     cde:	79 c0       	rjmp	.+242    	; 0xdd2 <config_read+0x120>
     ce0:	80 91 0b 06 	lds	r24, 0x060B
     ce4:	8e 30       	cpi	r24, 0x0E	; 14
     ce6:	09 f0       	breq	.+2      	; 0xcea <config_read+0x38>
     ce8:	74 c0       	rjmp	.+232    	; 0xdd2 <config_read+0x120>
     cea:	aa e7       	ldi	r26, 0x7A	; 122
     cec:	bb e0       	ldi	r27, 0x0B	; 11
     cee:	eb ee       	ldi	r30, 0xEB	; 235
     cf0:	f5 e0       	ldi	r31, 0x05	; 5
     cf2:	85 e0       	ldi	r24, 0x05	; 5
     cf4:	01 90       	ld	r0, Z+
     cf6:	0d 92       	st	X+, r0
     cf8:	81 50       	subi	r24, 0x01	; 1
     cfa:	e1 f7       	brne	.-8      	; 0xcf4 <config_read+0x42>
     cfc:	a2 e8       	ldi	r26, 0x82	; 130
     cfe:	bb e0       	ldi	r27, 0x0B	; 11
     d00:	e6 ee       	ldi	r30, 0xE6	; 230
     d02:	f5 e0       	ldi	r31, 0x05	; 5
     d04:	85 e0       	ldi	r24, 0x05	; 5
     d06:	01 90       	ld	r0, Z+
     d08:	0d 92       	st	X+, r0
     d0a:	81 50       	subi	r24, 0x01	; 1
     d0c:	e1 f7       	brne	.-8      	; 0xd06 <config_read+0x54>
     d0e:	ac ea       	ldi	r26, 0xAC	; 172
     d10:	bb e0       	ldi	r27, 0x0B	; 11
     d12:	e1 ee       	ldi	r30, 0xE1	; 225
     d14:	f5 e0       	ldi	r31, 0x05	; 5
     d16:	85 e0       	ldi	r24, 0x05	; 5
     d18:	01 90       	ld	r0, Z+
     d1a:	0d 92       	st	X+, r0
     d1c:	81 50       	subi	r24, 0x01	; 1
     d1e:	e1 f7       	brne	.-8      	; 0xd18 <config_read+0x66>
     d20:	a7 e8       	ldi	r26, 0x87	; 135
     d22:	bb e0       	ldi	r27, 0x0B	; 11
     d24:	ea ef       	ldi	r30, 0xFA	; 250
     d26:	f5 e0       	ldi	r31, 0x05	; 5
     d28:	85 e0       	ldi	r24, 0x05	; 5
     d2a:	01 90       	ld	r0, Z+
     d2c:	0d 92       	st	X+, r0
     d2e:	81 50       	subi	r24, 0x01	; 1
     d30:	e1 f7       	brne	.-8      	; 0xd2a <config_read+0x78>
     d32:	a8 e5       	ldi	r26, 0x58	; 88
     d34:	bc e0       	ldi	r27, 0x0C	; 12
     d36:	e5 ef       	ldi	r30, 0xF5	; 245
     d38:	f5 e0       	ldi	r31, 0x05	; 5
     d3a:	85 e0       	ldi	r24, 0x05	; 5
     d3c:	01 90       	ld	r0, Z+
     d3e:	0d 92       	st	X+, r0
     d40:	81 50       	subi	r24, 0x01	; 1
     d42:	e1 f7       	brne	.-8      	; 0xd3c <config_read+0x8a>
     d44:	a7 ea       	ldi	r26, 0xA7	; 167
     d46:	bb e0       	ldi	r27, 0x0B	; 11
     d48:	e0 ef       	ldi	r30, 0xF0	; 240
     d4a:	f5 e0       	ldi	r31, 0x05	; 5
     d4c:	85 e0       	ldi	r24, 0x05	; 5
     d4e:	01 90       	ld	r0, Z+
     d50:	0d 92       	st	X+, r0
     d52:	81 50       	subi	r24, 0x01	; 1
     d54:	e1 f7       	brne	.-8      	; 0xd4e <config_read+0x9c>
     d56:	a7 ee       	ldi	r26, 0xE7	; 231
     d58:	bb e0       	ldi	r27, 0x0B	; 11
     d5a:	ef ef       	ldi	r30, 0xFF	; 255
     d5c:	f5 e0       	ldi	r31, 0x05	; 5
     d5e:	83 e0       	ldi	r24, 0x03	; 3
     d60:	01 90       	ld	r0, Z+
     d62:	0d 92       	st	X+, r0
     d64:	81 50       	subi	r24, 0x01	; 1
     d66:	e1 f7       	brne	.-8      	; 0xd60 <config_read+0xae>
     d68:	af e7       	ldi	r26, 0x7F	; 127
     d6a:	bb e0       	ldi	r27, 0x0B	; 11
     d6c:	e2 e0       	ldi	r30, 0x02	; 2
     d6e:	f6 e0       	ldi	r31, 0x06	; 6
     d70:	83 e0       	ldi	r24, 0x03	; 3
     d72:	01 90       	ld	r0, Z+
     d74:	0d 92       	st	X+, r0
     d76:	81 50       	subi	r24, 0x01	; 1
     d78:	e1 f7       	brne	.-8      	; 0xd72 <config_read+0xc0>
     d7a:	a0 e6       	ldi	r26, 0x60	; 96
     d7c:	b6 e0       	ldi	r27, 0x06	; 6
     d7e:	e5 e0       	ldi	r30, 0x05	; 5
     d80:	f6 e0       	ldi	r31, 0x06	; 6
     d82:	83 e0       	ldi	r24, 0x03	; 3
     d84:	01 90       	ld	r0, Z+
     d86:	0d 92       	st	X+, r0
     d88:	81 50       	subi	r24, 0x01	; 1
     d8a:	e1 f7       	brne	.-8      	; 0xd84 <config_read+0xd2>
     d8c:	80 91 08 06 	lds	r24, 0x0608
     d90:	86 ff       	sbrs	r24, 6
     d92:	0c c0       	rjmp	.+24     	; 0xdac <config_read+0xfa>
     d94:	90 91 6c 06 	lds	r25, 0x066C
     d98:	90 64       	ori	r25, 0x40	; 64
     d9a:	90 93 6c 06 	sts	0x066C, r25
     d9e:	85 ff       	sbrs	r24, 5
     da0:	05 c0       	rjmp	.+10     	; 0xdac <config_read+0xfa>
     da2:	90 91 6c 06 	lds	r25, 0x066C
     da6:	90 62       	ori	r25, 0x20	; 32
     da8:	90 93 6c 06 	sts	0x066C, r25
     dac:	90 91 09 06 	lds	r25, 0x0609
     db0:	90 93 68 06 	sts	0x0668, r25
     db4:	80 ff       	sbrs	r24, 0
     db6:	02 c0       	rjmp	.+4      	; 0xdbc <config_read+0x10a>
     db8:	80 e0       	ldi	r24, 0x00	; 0
     dba:	07 c0       	rjmp	.+14     	; 0xdca <config_read+0x118>
     dbc:	81 ff       	sbrs	r24, 1
     dbe:	02 c0       	rjmp	.+4      	; 0xdc4 <config_read+0x112>
     dc0:	81 e0       	ldi	r24, 0x01	; 1
     dc2:	03 c0       	rjmp	.+6      	; 0xdca <config_read+0x118>
     dc4:	82 ff       	sbrs	r24, 2
     dc6:	07 c0       	rjmp	.+14     	; 0xdd6 <config_read+0x124>
     dc8:	82 e0       	ldi	r24, 0x02	; 2
     dca:	0e 94 8a 14 	call	0x2914	; 0x2914 <led_zeiger_set_active>
     dce:	81 e0       	ldi	r24, 0x01	; 1
     dd0:	08 95       	ret
     dd2:	80 e0       	ldi	r24, 0x00	; 0
     dd4:	08 95       	ret
     dd6:	81 e0       	ldi	r24, 0x01	; 1
     dd8:	08 95       	ret

00000dda <config_write>:
     dda:	8c ee       	ldi	r24, 0xEC	; 236
     ddc:	80 93 df 05 	sts	0x05DF, r24
     de0:	80 ec       	ldi	r24, 0xC0	; 192
     de2:	80 93 e0 05 	sts	0x05E0, r24
     de6:	80 ee       	ldi	r24, 0xE0	; 224
     de8:	80 93 0a 06 	sts	0x060A, r24
     dec:	8e e0       	ldi	r24, 0x0E	; 14
     dee:	80 93 0b 06 	sts	0x060B, r24
     df2:	ab ee       	ldi	r26, 0xEB	; 235
     df4:	b5 e0       	ldi	r27, 0x05	; 5
     df6:	ea e7       	ldi	r30, 0x7A	; 122
     df8:	fb e0       	ldi	r31, 0x0B	; 11
     dfa:	85 e0       	ldi	r24, 0x05	; 5
     dfc:	01 90       	ld	r0, Z+
     dfe:	0d 92       	st	X+, r0
     e00:	81 50       	subi	r24, 0x01	; 1
     e02:	e1 f7       	brne	.-8      	; 0xdfc <config_write+0x22>
     e04:	a6 ee       	ldi	r26, 0xE6	; 230
     e06:	b5 e0       	ldi	r27, 0x05	; 5
     e08:	e2 e8       	ldi	r30, 0x82	; 130
     e0a:	fb e0       	ldi	r31, 0x0B	; 11
     e0c:	85 e0       	ldi	r24, 0x05	; 5
     e0e:	01 90       	ld	r0, Z+
     e10:	0d 92       	st	X+, r0
     e12:	81 50       	subi	r24, 0x01	; 1
     e14:	e1 f7       	brne	.-8      	; 0xe0e <config_write+0x34>
     e16:	a1 ee       	ldi	r26, 0xE1	; 225
     e18:	b5 e0       	ldi	r27, 0x05	; 5
     e1a:	ec ea       	ldi	r30, 0xAC	; 172
     e1c:	fb e0       	ldi	r31, 0x0B	; 11
     e1e:	85 e0       	ldi	r24, 0x05	; 5
     e20:	01 90       	ld	r0, Z+
     e22:	0d 92       	st	X+, r0
     e24:	81 50       	subi	r24, 0x01	; 1
     e26:	e1 f7       	brne	.-8      	; 0xe20 <config_write+0x46>
     e28:	aa ef       	ldi	r26, 0xFA	; 250
     e2a:	b5 e0       	ldi	r27, 0x05	; 5
     e2c:	e7 e8       	ldi	r30, 0x87	; 135
     e2e:	fb e0       	ldi	r31, 0x0B	; 11
     e30:	85 e0       	ldi	r24, 0x05	; 5
     e32:	01 90       	ld	r0, Z+
     e34:	0d 92       	st	X+, r0
     e36:	81 50       	subi	r24, 0x01	; 1
     e38:	e1 f7       	brne	.-8      	; 0xe32 <config_write+0x58>
     e3a:	a5 ef       	ldi	r26, 0xF5	; 245
     e3c:	b5 e0       	ldi	r27, 0x05	; 5
     e3e:	e8 e5       	ldi	r30, 0x58	; 88
     e40:	fc e0       	ldi	r31, 0x0C	; 12
     e42:	85 e0       	ldi	r24, 0x05	; 5
     e44:	01 90       	ld	r0, Z+
     e46:	0d 92       	st	X+, r0
     e48:	81 50       	subi	r24, 0x01	; 1
     e4a:	e1 f7       	brne	.-8      	; 0xe44 <config_write+0x6a>
     e4c:	a0 ef       	ldi	r26, 0xF0	; 240
     e4e:	b5 e0       	ldi	r27, 0x05	; 5
     e50:	e7 ea       	ldi	r30, 0xA7	; 167
     e52:	fb e0       	ldi	r31, 0x0B	; 11
     e54:	85 e0       	ldi	r24, 0x05	; 5
     e56:	01 90       	ld	r0, Z+
     e58:	0d 92       	st	X+, r0
     e5a:	81 50       	subi	r24, 0x01	; 1
     e5c:	e1 f7       	brne	.-8      	; 0xe56 <config_write+0x7c>
     e5e:	af ef       	ldi	r26, 0xFF	; 255
     e60:	b5 e0       	ldi	r27, 0x05	; 5
     e62:	e7 ee       	ldi	r30, 0xE7	; 231
     e64:	fb e0       	ldi	r31, 0x0B	; 11
     e66:	83 e0       	ldi	r24, 0x03	; 3
     e68:	01 90       	ld	r0, Z+
     e6a:	0d 92       	st	X+, r0
     e6c:	81 50       	subi	r24, 0x01	; 1
     e6e:	e1 f7       	brne	.-8      	; 0xe68 <config_write+0x8e>
     e70:	a2 e0       	ldi	r26, 0x02	; 2
     e72:	b6 e0       	ldi	r27, 0x06	; 6
     e74:	ef e7       	ldi	r30, 0x7F	; 127
     e76:	fb e0       	ldi	r31, 0x0B	; 11
     e78:	83 e0       	ldi	r24, 0x03	; 3
     e7a:	01 90       	ld	r0, Z+
     e7c:	0d 92       	st	X+, r0
     e7e:	81 50       	subi	r24, 0x01	; 1
     e80:	e1 f7       	brne	.-8      	; 0xe7a <config_write+0xa0>
     e82:	a5 e0       	ldi	r26, 0x05	; 5
     e84:	b6 e0       	ldi	r27, 0x06	; 6
     e86:	e0 e6       	ldi	r30, 0x60	; 96
     e88:	f6 e0       	ldi	r31, 0x06	; 6
     e8a:	83 e0       	ldi	r24, 0x03	; 3
     e8c:	01 90       	ld	r0, Z+
     e8e:	0d 92       	st	X+, r0
     e90:	81 50       	subi	r24, 0x01	; 1
     e92:	e1 f7       	brne	.-8      	; 0xe8c <config_write+0xb2>
     e94:	10 92 08 06 	sts	0x0608, r1
     e98:	80 91 6c 06 	lds	r24, 0x066C
     e9c:	85 ff       	sbrs	r24, 5
     e9e:	03 c0       	rjmp	.+6      	; 0xea6 <config_write+0xcc>
     ea0:	80 e2       	ldi	r24, 0x20	; 32
     ea2:	80 93 08 06 	sts	0x0608, r24
     ea6:	80 91 6c 06 	lds	r24, 0x066C
     eaa:	86 ff       	sbrs	r24, 6
     eac:	05 c0       	rjmp	.+10     	; 0xeb8 <config_write+0xde>
     eae:	80 91 08 06 	lds	r24, 0x0608
     eb2:	80 64       	ori	r24, 0x40	; 64
     eb4:	80 93 08 06 	sts	0x0608, r24
     eb8:	80 91 d7 05 	lds	r24, 0x05D7
     ebc:	80 ff       	sbrs	r24, 0
     ebe:	05 c0       	rjmp	.+10     	; 0xeca <config_write+0xf0>
     ec0:	80 91 08 06 	lds	r24, 0x0608
     ec4:	81 60       	ori	r24, 0x01	; 1
     ec6:	80 93 08 06 	sts	0x0608, r24
     eca:	80 91 d7 05 	lds	r24, 0x05D7
     ece:	81 ff       	sbrs	r24, 1
     ed0:	05 c0       	rjmp	.+10     	; 0xedc <config_write+0x102>
     ed2:	80 91 08 06 	lds	r24, 0x0608
     ed6:	82 60       	ori	r24, 0x02	; 2
     ed8:	80 93 08 06 	sts	0x0608, r24
     edc:	80 91 d7 05 	lds	r24, 0x05D7
     ee0:	82 ff       	sbrs	r24, 2
     ee2:	05 c0       	rjmp	.+10     	; 0xeee <config_write+0x114>
     ee4:	80 91 08 06 	lds	r24, 0x0608
     ee8:	84 60       	ori	r24, 0x04	; 4
     eea:	80 93 08 06 	sts	0x0608, r24
     eee:	80 91 68 06 	lds	r24, 0x0668
     ef2:	80 93 09 06 	sts	0x0609, r24
     ef6:	8f ed       	ldi	r24, 0xDF	; 223
     ef8:	95 e0       	ldi	r25, 0x05	; 5
     efa:	60 e0       	ldi	r22, 0x00	; 0
     efc:	70 e0       	ldi	r23, 0x00	; 0
     efe:	4d e2       	ldi	r20, 0x2D	; 45
     f00:	50 e0       	ldi	r21, 0x00	; 0
     f02:	0e 94 0a 28 	call	0x5014	; 0x5014 <__eewr_block_m644>
     f06:	08 95       	ret

00000f08 <dcf_init>:
     f08:	10 92 5f 06 	sts	0x065F, r1
     f0c:	80 91 5f 06 	lds	r24, 0x065F
     f10:	82 60       	ori	r24, 0x02	; 2
     f12:	80 93 5f 06 	sts	0x065F, r24
     f16:	80 e0       	ldi	r24, 0x00	; 0
     f18:	90 e0       	ldi	r25, 0x00	; 0
     f1a:	fc 01       	movw	r30, r24
     f1c:	e4 5f       	subi	r30, 0xF4	; 244
     f1e:	f9 4f       	sbci	r31, 0xF9	; 249
     f20:	10 82       	st	Z, r1
     f22:	01 96       	adiw	r24, 0x01	; 1
     f24:	8c 33       	cpi	r24, 0x3C	; 60
     f26:	91 05       	cpc	r25, r1
     f28:	c1 f7       	brne	.-16     	; 0xf1a <dcf_init+0x12>
     f2a:	10 92 48 06 	sts	0x0648, r1
     f2e:	08 95       	ret

00000f30 <dcf_decode>:
     f30:	10 92 5e 06 	sts	0x065E, r1
     f34:	80 91 47 06 	lds	r24, 0x0647
     f38:	82 30       	cpi	r24, 0x02	; 2
     f3a:	49 f0       	breq	.+18     	; 0xf4e <dcf_decode+0x1e>
     f3c:	80 91 0c 06 	lds	r24, 0x060C
     f40:	88 23       	and	r24, r24
     f42:	29 f0       	breq	.+10     	; 0xf4e <dcf_decode+0x1e>
     f44:	80 91 1f 06 	lds	r24, 0x061F
     f48:	81 30       	cpi	r24, 0x01	; 1
     f4a:	09 f0       	breq	.+2      	; 0xf4e <dcf_decode+0x1e>
     f4c:	5c c1       	rjmp	.+696    	; 0x1206 <__stack+0x107>
     f4e:	e0 e0       	ldi	r30, 0x00	; 0
     f50:	01 c0       	rjmp	.+2      	; 0xf54 <dcf_decode+0x24>
     f52:	e8 2f       	mov	r30, r24
     f54:	8e 2f       	mov	r24, r30
     f56:	8f 5f       	subi	r24, 0xFF	; 255
     f58:	f0 e0       	ldi	r31, 0x00	; 0
     f5a:	a8 2f       	mov	r26, r24
     f5c:	b0 e0       	ldi	r27, 0x00	; 0
     f5e:	a4 5f       	subi	r26, 0xF4	; 244
     f60:	b9 4f       	sbci	r27, 0xF9	; 249
     f62:	9c 91       	ld	r25, X
     f64:	e7 5b       	subi	r30, 0xB7	; 183
     f66:	f9 4f       	sbci	r31, 0xF9	; 249
     f68:	90 83       	st	Z, r25
     f6a:	8e 30       	cpi	r24, 0x0E	; 14
     f6c:	91 f7       	brne	.-28     	; 0xf52 <dcf_decode+0x22>
     f6e:	80 91 1c 06 	lds	r24, 0x061C
     f72:	81 30       	cpi	r24, 0x01	; 1
     f74:	31 f4       	brne	.+12     	; 0xf82 <dcf_decode+0x52>
     f76:	80 91 5e 06 	lds	r24, 0x065E
     f7a:	82 60       	ori	r24, 0x02	; 2
     f7c:	e9 e4       	ldi	r30, 0x49	; 73
     f7e:	f6 e0       	ldi	r31, 0x06	; 6
     f80:	85 8b       	std	Z+21, r24	; 0x15
     f82:	10 92 57 06 	sts	0x0657, r1
     f86:	80 e0       	ldi	r24, 0x00	; 0
     f88:	90 e0       	ldi	r25, 0x00	; 0
     f8a:	25 e1       	ldi	r18, 0x15	; 21
     f8c:	30 e0       	ldi	r19, 0x00	; 0
     f8e:	fc 01       	movw	r30, r24
     f90:	ef 5d       	subi	r30, 0xDF	; 223
     f92:	f9 4f       	sbci	r31, 0xF9	; 249
     f94:	40 81       	ld	r20, Z
     f96:	43 30       	cpi	r20, 0x03	; 3
     f98:	49 f0       	breq	.+18     	; 0xfac <dcf_decode+0x7c>
     f9a:	40 81       	ld	r20, Z
     f9c:	42 30       	cpi	r20, 0x02	; 2
     f9e:	31 f0       	breq	.+12     	; 0xfac <dcf_decode+0x7c>
     fa0:	40 81       	ld	r20, Z
     fa2:	34 27       	eor	r19, r20
     fa4:	2f 5f       	subi	r18, 0xFF	; 255
     fa6:	01 96       	adiw	r24, 0x01	; 1
     fa8:	2c 31       	cpi	r18, 0x1C	; 28
     faa:	89 f7       	brne	.-30     	; 0xf8e <dcf_decode+0x5e>
     fac:	80 91 28 06 	lds	r24, 0x0628
     fb0:	38 17       	cp	r19, r24
     fb2:	c1 f5       	brne	.+112    	; 0x1024 <dcf_decode+0xf4>
     fb4:	2c 31       	cpi	r18, 0x1C	; 28
     fb6:	b1 f5       	brne	.+108    	; 0x1024 <dcf_decode+0xf4>
     fb8:	e0 91 21 06 	lds	r30, 0x0621
     fbc:	90 91 26 06 	lds	r25, 0x0626
     fc0:	60 91 27 06 	lds	r22, 0x0627
     fc4:	f0 91 23 06 	lds	r31, 0x0623
     fc8:	20 91 24 06 	lds	r18, 0x0624
     fcc:	40 91 25 06 	lds	r20, 0x0625
     fd0:	30 91 22 06 	lds	r19, 0x0622
     fd4:	8a e0       	ldi	r24, 0x0A	; 10
     fd6:	98 9f       	mul	r25, r24
     fd8:	c0 01       	movw	r24, r0
     fda:	11 24       	eor	r1, r1
     fdc:	54 e1       	ldi	r21, 0x14	; 20
     fde:	65 9f       	mul	r22, r21
     fe0:	b0 01       	movw	r22, r0
     fe2:	11 24       	eor	r1, r1
     fe4:	86 0f       	add	r24, r22
     fe6:	97 1f       	adc	r25, r23
     fe8:	83 0f       	add	r24, r19
     fea:	91 1d       	adc	r25, r1
     fec:	35 e0       	ldi	r19, 0x05	; 5
     fee:	43 9f       	mul	r20, r19
     ff0:	a0 01       	movw	r20, r0
     ff2:	11 24       	eor	r1, r1
     ff4:	84 0f       	add	r24, r20
     ff6:	95 1f       	adc	r25, r21
     ff8:	30 e0       	ldi	r19, 0x00	; 0
     ffa:	22 0f       	add	r18, r18
     ffc:	33 1f       	adc	r19, r19
     ffe:	2f 0f       	add	r18, r31
    1000:	31 1d       	adc	r19, r1
    1002:	22 0f       	add	r18, r18
    1004:	33 1f       	adc	r19, r19
    1006:	82 0f       	add	r24, r18
    1008:	93 1f       	adc	r25, r19
    100a:	88 0f       	add	r24, r24
    100c:	8e 0f       	add	r24, r30
    100e:	80 93 57 06 	sts	0x0657, r24
    1012:	80 91 57 06 	lds	r24, 0x0657
    1016:	8c 33       	cpi	r24, 0x3C	; 60
    1018:	28 f4       	brcc	.+10     	; 0x1024 <dcf_decode+0xf4>
    101a:	80 91 5e 06 	lds	r24, 0x065E
    101e:	88 60       	ori	r24, 0x08	; 8
    1020:	80 93 5e 06 	sts	0x065E, r24
    1024:	10 92 58 06 	sts	0x0658, r1
    1028:	80 e0       	ldi	r24, 0x00	; 0
    102a:	90 e0       	ldi	r25, 0x00	; 0
    102c:	2d e1       	ldi	r18, 0x1D	; 29
    102e:	30 e0       	ldi	r19, 0x00	; 0
    1030:	fc 01       	movw	r30, r24
    1032:	e7 5d       	subi	r30, 0xD7	; 215
    1034:	f9 4f       	sbci	r31, 0xF9	; 249
    1036:	40 81       	ld	r20, Z
    1038:	43 30       	cpi	r20, 0x03	; 3
    103a:	49 f0       	breq	.+18     	; 0x104e <dcf_decode+0x11e>
    103c:	40 81       	ld	r20, Z
    103e:	42 30       	cpi	r20, 0x02	; 2
    1040:	31 f0       	breq	.+12     	; 0x104e <dcf_decode+0x11e>
    1042:	40 81       	ld	r20, Z
    1044:	34 27       	eor	r19, r20
    1046:	2f 5f       	subi	r18, 0xFF	; 255
    1048:	01 96       	adiw	r24, 0x01	; 1
    104a:	23 32       	cpi	r18, 0x23	; 35
    104c:	89 f7       	brne	.-30     	; 0x1030 <dcf_decode+0x100>
    104e:	80 91 2f 06 	lds	r24, 0x062F
    1052:	38 17       	cp	r19, r24
    1054:	81 f5       	brne	.+96     	; 0x10b6 <dcf_decode+0x186>
    1056:	23 32       	cpi	r18, 0x23	; 35
    1058:	71 f5       	brne	.+92     	; 0x10b6 <dcf_decode+0x186>
    105a:	60 91 29 06 	lds	r22, 0x0629
    105e:	90 91 2e 06 	lds	r25, 0x062E
    1062:	70 91 2b 06 	lds	r23, 0x062B
    1066:	20 91 2c 06 	lds	r18, 0x062C
    106a:	50 91 2d 06 	lds	r21, 0x062D
    106e:	30 91 2a 06 	lds	r19, 0x062A
    1072:	8a e0       	ldi	r24, 0x0A	; 10
    1074:	98 9f       	mul	r25, r24
    1076:	c0 01       	movw	r24, r0
    1078:	11 24       	eor	r1, r1
    107a:	45 e0       	ldi	r20, 0x05	; 5
    107c:	54 9f       	mul	r21, r20
    107e:	a0 01       	movw	r20, r0
    1080:	11 24       	eor	r1, r1
    1082:	84 0f       	add	r24, r20
    1084:	95 1f       	adc	r25, r21
    1086:	83 0f       	add	r24, r19
    1088:	91 1d       	adc	r25, r1
    108a:	30 e0       	ldi	r19, 0x00	; 0
    108c:	22 0f       	add	r18, r18
    108e:	33 1f       	adc	r19, r19
    1090:	27 0f       	add	r18, r23
    1092:	31 1d       	adc	r19, r1
    1094:	22 0f       	add	r18, r18
    1096:	33 1f       	adc	r19, r19
    1098:	82 0f       	add	r24, r18
    109a:	93 1f       	adc	r25, r19
    109c:	88 0f       	add	r24, r24
    109e:	86 0f       	add	r24, r22
    10a0:	80 93 58 06 	sts	0x0658, r24
    10a4:	80 91 58 06 	lds	r24, 0x0658
    10a8:	88 31       	cpi	r24, 0x18	; 24
    10aa:	28 f4       	brcc	.+10     	; 0x10b6 <dcf_decode+0x186>
    10ac:	80 91 5e 06 	lds	r24, 0x065E
    10b0:	80 61       	ori	r24, 0x10	; 16
    10b2:	80 93 5e 06 	sts	0x065E, r24
    10b6:	10 92 59 06 	sts	0x0659, r1
    10ba:	10 92 5a 06 	sts	0x065A, r1
    10be:	10 92 5d 06 	sts	0x065D, r1
    10c2:	10 92 5c 06 	sts	0x065C, r1
    10c6:	10 92 5b 06 	sts	0x065B, r1
    10ca:	80 e0       	ldi	r24, 0x00	; 0
    10cc:	90 e0       	ldi	r25, 0x00	; 0
    10ce:	fc 01       	movw	r30, r24
    10d0:	e0 5d       	subi	r30, 0xD0	; 208
    10d2:	f9 4f       	sbci	r31, 0xF9	; 249
    10d4:	20 81       	ld	r18, Z
    10d6:	23 30       	cpi	r18, 0x03	; 3
    10d8:	41 f0       	breq	.+16     	; 0x10ea <dcf_decode+0x1ba>
    10da:	20 81       	ld	r18, Z
    10dc:	22 30       	cpi	r18, 0x02	; 2
    10de:	29 f0       	breq	.+10     	; 0x10ea <dcf_decode+0x1ba>
    10e0:	20 81       	ld	r18, Z
    10e2:	01 96       	adiw	r24, 0x01	; 1
    10e4:	86 31       	cpi	r24, 0x16	; 22
    10e6:	91 05       	cpc	r25, r1
    10e8:	91 f7       	brne	.-28     	; 0x10ce <dcf_decode+0x19e>
    10ea:	e0 91 30 06 	lds	r30, 0x0630
    10ee:	80 91 35 06 	lds	r24, 0x0635
    10f2:	f0 91 32 06 	lds	r31, 0x0632
    10f6:	20 91 33 06 	lds	r18, 0x0633
    10fa:	60 91 34 06 	lds	r22, 0x0634
    10fe:	30 91 31 06 	lds	r19, 0x0631
    1102:	5a e0       	ldi	r21, 0x0A	; 10
    1104:	85 9f       	mul	r24, r21
    1106:	c0 01       	movw	r24, r0
    1108:	11 24       	eor	r1, r1
    110a:	45 e0       	ldi	r20, 0x05	; 5
    110c:	64 9f       	mul	r22, r20
    110e:	b0 01       	movw	r22, r0
    1110:	11 24       	eor	r1, r1
    1112:	86 0f       	add	r24, r22
    1114:	97 1f       	adc	r25, r23
    1116:	83 0f       	add	r24, r19
    1118:	91 1d       	adc	r25, r1
    111a:	30 e0       	ldi	r19, 0x00	; 0
    111c:	22 0f       	add	r18, r18
    111e:	33 1f       	adc	r19, r19
    1120:	2f 0f       	add	r18, r31
    1122:	31 1d       	adc	r19, r1
    1124:	22 0f       	add	r18, r18
    1126:	33 1f       	adc	r19, r19
    1128:	82 0f       	add	r24, r18
    112a:	93 1f       	adc	r25, r19
    112c:	88 0f       	add	r24, r24
    112e:	8e 0f       	add	r24, r30
    1130:	80 93 59 06 	sts	0x0659, r24
    1134:	20 91 36 06 	lds	r18, 0x0636
    1138:	80 91 38 06 	lds	r24, 0x0638
    113c:	30 91 37 06 	lds	r19, 0x0637
    1140:	90 e0       	ldi	r25, 0x00	; 0
    1142:	88 0f       	add	r24, r24
    1144:	99 1f       	adc	r25, r25
    1146:	83 0f       	add	r24, r19
    1148:	91 1d       	adc	r25, r1
    114a:	88 0f       	add	r24, r24
    114c:	82 0f       	add	r24, r18
    114e:	80 93 5a 06 	sts	0x065A, r24
    1152:	60 91 39 06 	lds	r22, 0x0639
    1156:	70 91 3b 06 	lds	r23, 0x063B
    115a:	80 91 3c 06 	lds	r24, 0x063C
    115e:	20 91 3d 06 	lds	r18, 0x063D
    1162:	90 91 3a 06 	lds	r25, 0x063A
    1166:	24 9f       	mul	r18, r20
    1168:	90 01       	movw	r18, r0
    116a:	11 24       	eor	r1, r1
    116c:	29 0f       	add	r18, r25
    116e:	31 1d       	adc	r19, r1
    1170:	90 e0       	ldi	r25, 0x00	; 0
    1172:	88 0f       	add	r24, r24
    1174:	99 1f       	adc	r25, r25
    1176:	87 0f       	add	r24, r23
    1178:	91 1d       	adc	r25, r1
    117a:	88 0f       	add	r24, r24
    117c:	99 1f       	adc	r25, r25
    117e:	28 0f       	add	r18, r24
    1180:	39 1f       	adc	r19, r25
    1182:	22 0f       	add	r18, r18
    1184:	26 0f       	add	r18, r22
    1186:	20 93 5b 06 	sts	0x065B, r18
    118a:	a0 91 3e 06 	lds	r26, 0x063E
    118e:	90 91 45 06 	lds	r25, 0x0645
    1192:	e0 91 43 06 	lds	r30, 0x0643
    1196:	60 91 44 06 	lds	r22, 0x0644
    119a:	b0 91 40 06 	lds	r27, 0x0640
    119e:	20 91 41 06 	lds	r18, 0x0641
    11a2:	30 91 42 06 	lds	r19, 0x0642
    11a6:	70 91 3f 06 	lds	r23, 0x063F
    11aa:	88 e2       	ldi	r24, 0x28	; 40
    11ac:	98 9f       	mul	r25, r24
    11ae:	c0 01       	movw	r24, r0
    11b0:	11 24       	eor	r1, r1
    11b2:	e5 9f       	mul	r30, r21
    11b4:	f0 01       	movw	r30, r0
    11b6:	11 24       	eor	r1, r1
    11b8:	8e 0f       	add	r24, r30
    11ba:	9f 1f       	adc	r25, r31
    11bc:	87 0f       	add	r24, r23
    11be:	91 1d       	adc	r25, r1
    11c0:	54 e1       	ldi	r21, 0x14	; 20
    11c2:	65 9f       	mul	r22, r21
    11c4:	b0 01       	movw	r22, r0
    11c6:	11 24       	eor	r1, r1
    11c8:	86 0f       	add	r24, r22
    11ca:	97 1f       	adc	r25, r23
    11cc:	34 9f       	mul	r19, r20
    11ce:	a0 01       	movw	r20, r0
    11d0:	11 24       	eor	r1, r1
    11d2:	84 0f       	add	r24, r20
    11d4:	95 1f       	adc	r25, r21
    11d6:	30 e0       	ldi	r19, 0x00	; 0
    11d8:	22 0f       	add	r18, r18
    11da:	33 1f       	adc	r19, r19
    11dc:	2b 0f       	add	r18, r27
    11de:	31 1d       	adc	r19, r1
    11e0:	22 0f       	add	r18, r18
    11e2:	33 1f       	adc	r19, r19
    11e4:	82 0f       	add	r24, r18
    11e6:	93 1f       	adc	r25, r19
    11e8:	88 0f       	add	r24, r24
    11ea:	99 1f       	adc	r25, r25
    11ec:	8a 0f       	add	r24, r26
    11ee:	91 1d       	adc	r25, r1
    11f0:	90 93 5d 06 	sts	0x065D, r25
    11f4:	80 93 5c 06 	sts	0x065C, r24
    11f8:	80 91 5e 06 	lds	r24, 0x065E
    11fc:	80 62       	ori	r24, 0x20	; 32
    11fe:	80 93 5e 06 	sts	0x065E, r24
    1202:	81 e0       	ldi	r24, 0x01	; 1
    1204:	08 95       	ret
    1206:	80 e0       	ldi	r24, 0x00	; 0
    1208:	08 95       	ret

0000120a <dcf_signal>:
    120a:	98 2f       	mov	r25, r24
    120c:	94 50       	subi	r25, 0x04	; 4
    120e:	9a 31       	cpi	r25, 0x1A	; 26
    1210:	38 f4       	brcc	.+14     	; 0x1220 <dcf_signal+0x16>
    1212:	e0 91 48 06 	lds	r30, 0x0648
    1216:	f0 e0       	ldi	r31, 0x00	; 0
    1218:	e4 5f       	subi	r30, 0xF4	; 244
    121a:	f9 4f       	sbci	r31, 0xF9	; 249
    121c:	10 82       	st	Z, r1
    121e:	1b c0       	rjmp	.+54     	; 0x1256 <dcf_signal+0x4c>
    1220:	8f 31       	cpi	r24, 0x1F	; 31
    1222:	38 f0       	brcs	.+14     	; 0x1232 <dcf_signal+0x28>
    1224:	e0 91 48 06 	lds	r30, 0x0648
    1228:	f0 e0       	ldi	r31, 0x00	; 0
    122a:	e4 5f       	subi	r30, 0xF4	; 244
    122c:	f9 4f       	sbci	r31, 0xF9	; 249
    122e:	81 e0       	ldi	r24, 0x01	; 1
    1230:	11 c0       	rjmp	.+34     	; 0x1254 <dcf_signal+0x4a>
    1232:	83 30       	cpi	r24, 0x03	; 3
    1234:	48 f4       	brcc	.+18     	; 0x1248 <dcf_signal+0x3e>
    1236:	e0 91 48 06 	lds	r30, 0x0648
    123a:	f0 e0       	ldi	r31, 0x00	; 0
    123c:	e4 5f       	subi	r30, 0xF4	; 244
    123e:	f9 4f       	sbci	r31, 0xF9	; 249
    1240:	82 e0       	ldi	r24, 0x02	; 2
    1242:	80 83       	st	Z, r24
    1244:	81 e0       	ldi	r24, 0x01	; 1
    1246:	08 c0       	rjmp	.+16     	; 0x1258 <dcf_signal+0x4e>
    1248:	e0 91 48 06 	lds	r30, 0x0648
    124c:	f0 e0       	ldi	r31, 0x00	; 0
    124e:	e4 5f       	subi	r30, 0xF4	; 244
    1250:	f9 4f       	sbci	r31, 0xF9	; 249
    1252:	83 e0       	ldi	r24, 0x03	; 3
    1254:	80 83       	st	Z, r24
    1256:	80 e0       	ldi	r24, 0x00	; 0
    1258:	90 91 48 06 	lds	r25, 0x0648
    125c:	9f 5f       	subi	r25, 0xFF	; 255
    125e:	90 93 48 06 	sts	0x0648, r25
    1262:	88 23       	and	r24, r24
    1264:	79 f0       	breq	.+30     	; 0x1284 <dcf_signal+0x7a>
    1266:	80 91 48 06 	lds	r24, 0x0648
    126a:	8b 33       	cpi	r24, 0x3B	; 59
    126c:	49 f4       	brne	.+18     	; 0x1280 <dcf_signal+0x76>
    126e:	0e 94 98 07 	call	0xf30	; 0xf30 <dcf_decode>
    1272:	88 23       	and	r24, r24
    1274:	29 f0       	breq	.+10     	; 0x1280 <dcf_signal+0x76>
    1276:	80 91 6c 06 	lds	r24, 0x066C
    127a:	84 60       	ori	r24, 0x04	; 4
    127c:	80 93 6c 06 	sts	0x066C, r24
    1280:	10 92 48 06 	sts	0x0648, r1
    1284:	80 91 48 06 	lds	r24, 0x0648
    1288:	8b 33       	cpi	r24, 0x3B	; 59
    128a:	10 f0       	brcs	.+4      	; 0x1290 <dcf_signal+0x86>
    128c:	10 92 48 06 	sts	0x0648, r1
    1290:	08 95       	ret

00001292 <__vector_16>:
    1292:	1f 92       	push	r1
    1294:	0f 92       	push	r0
    1296:	0f b6       	in	r0, 0x3f	; 63
    1298:	0f 92       	push	r0
    129a:	11 24       	eor	r1, r1
    129c:	2f 93       	push	r18
    129e:	3f 93       	push	r19
    12a0:	4f 93       	push	r20
    12a2:	5f 93       	push	r21
    12a4:	6f 93       	push	r22
    12a6:	7f 93       	push	r23
    12a8:	8f 93       	push	r24
    12aa:	9f 93       	push	r25
    12ac:	af 93       	push	r26
    12ae:	bf 93       	push	r27
    12b0:	ef 93       	push	r30
    12b2:	ff 93       	push	r31
    12b4:	0e 94 db 24 	call	0x49b6	; 0x49b6 <speaker_speak>
    12b8:	80 91 6c 06 	lds	r24, 0x066C
    12bc:	80 ff       	sbrs	r24, 0
    12be:	11 c0       	rjmp	.+34     	; 0x12e2 <__vector_16+0x50>
    12c0:	80 91 1d 01 	lds	r24, 0x011D
    12c4:	88 23       	and	r24, r24
    12c6:	69 f4       	brne	.+26     	; 0x12e2 <__vector_16+0x50>
    12c8:	80 91 69 06 	lds	r24, 0x0669
    12cc:	60 91 6a 06 	lds	r22, 0x066A
    12d0:	40 91 6b 06 	lds	r20, 0x066B
    12d4:	0e 94 5e 17 	call	0x2ebc	; 0x2ebc <led_zeiger_update>
    12d8:	80 91 6c 06 	lds	r24, 0x066C
    12dc:	8e 7f       	andi	r24, 0xFE	; 254
    12de:	80 93 6c 06 	sts	0x066C, r24
    12e2:	8f ef       	ldi	r24, 0xFF	; 255
    12e4:	8b b9       	out	0x0b, r24	; 11
    12e6:	80 91 1d 01 	lds	r24, 0x011D
    12ea:	81 30       	cpi	r24, 0x01	; 1
    12ec:	39 f0       	breq	.+14     	; 0x12fc <__vector_16+0x6a>
    12ee:	81 30       	cpi	r24, 0x01	; 1
    12f0:	b8 f0       	brcs	.+46     	; 0x1320 <__vector_16+0x8e>
    12f2:	82 30       	cpi	r24, 0x02	; 2
    12f4:	49 f0       	breq	.+18     	; 0x1308 <__vector_16+0x76>
    12f6:	83 30       	cpi	r24, 0x03	; 3
    12f8:	31 f5       	brne	.+76     	; 0x1346 <__vector_16+0xb4>
    12fa:	0c c0       	rjmp	.+24     	; 0x1314 <__vector_16+0x82>
    12fc:	80 91 d1 05 	lds	r24, 0x05D1
    1300:	0e 94 75 12 	call	0x24ea	; 0x24ea <led_schreibe_r>
    1304:	58 98       	cbi	0x0b, 0	; 11
    1306:	1f c0       	rjmp	.+62     	; 0x1346 <__vector_16+0xb4>
    1308:	80 91 d1 05 	lds	r24, 0x05D1
    130c:	0e 94 9a 12 	call	0x2534	; 0x2534 <led_schreibe_g>
    1310:	59 98       	cbi	0x0b, 1	; 11
    1312:	19 c0       	rjmp	.+50     	; 0x1346 <__vector_16+0xb4>
    1314:	80 91 d1 05 	lds	r24, 0x05D1
    1318:	0e 94 bf 12 	call	0x257e	; 0x257e <led_schreibe_b>
    131c:	5a 98       	cbi	0x0b, 2	; 11
    131e:	13 c0       	rjmp	.+38     	; 0x1346 <__vector_16+0xb4>
    1320:	0e 94 fa 11 	call	0x23f4	; 0x23f4 <lcd_need_redraw>
    1324:	88 23       	and	r24, r24
    1326:	29 f0       	breq	.+10     	; 0x1332 <__vector_16+0xa0>
    1328:	2a 9a       	sbi	0x05, 2	; 5
    132a:	0e 94 d6 10 	call	0x21ac	; 0x21ac <lcd_step>
    132e:	2a 98       	cbi	0x05, 2	; 5
    1330:	0a c0       	rjmp	.+20     	; 0x1346 <__vector_16+0xb4>
    1332:	80 91 d7 05 	lds	r24, 0x05D7
    1336:	82 ff       	sbrs	r24, 2
    1338:	06 c0       	rjmp	.+12     	; 0x1346 <__vector_16+0xb4>
    133a:	80 91 d1 05 	lds	r24, 0x05D1
    133e:	8a 30       	cpi	r24, 0x0A	; 10
    1340:	11 f4       	brne	.+4      	; 0x1346 <__vector_16+0xb4>
    1342:	0e 94 f1 14 	call	0x29e2	; 0x29e2 <led_zeiger_update_dyn_zeiger>
    1346:	80 91 d1 05 	lds	r24, 0x05D1
    134a:	8f 5f       	subi	r24, 0xFF	; 255
    134c:	80 93 d1 05 	sts	0x05D1, r24
    1350:	80 31       	cpi	r24, 0x10	; 16
    1352:	59 f4       	brne	.+22     	; 0x136a <__vector_16+0xd8>
    1354:	10 92 d1 05 	sts	0x05D1, r1
    1358:	80 91 1d 01 	lds	r24, 0x011D
    135c:	8f 5f       	subi	r24, 0xFF	; 255
    135e:	80 93 1d 01 	sts	0x011D, r24
    1362:	84 30       	cpi	r24, 0x04	; 4
    1364:	11 f4       	brne	.+4      	; 0x136a <__vector_16+0xd8>
    1366:	10 92 1d 01 	sts	0x011D, r1
    136a:	ff 91       	pop	r31
    136c:	ef 91       	pop	r30
    136e:	bf 91       	pop	r27
    1370:	af 91       	pop	r26
    1372:	9f 91       	pop	r25
    1374:	8f 91       	pop	r24
    1376:	7f 91       	pop	r23
    1378:	6f 91       	pop	r22
    137a:	5f 91       	pop	r21
    137c:	4f 91       	pop	r20
    137e:	3f 91       	pop	r19
    1380:	2f 91       	pop	r18
    1382:	0f 90       	pop	r0
    1384:	0f be       	out	0x3f, r0	; 63
    1386:	0f 90       	pop	r0
    1388:	1f 90       	pop	r1
    138a:	18 95       	reti

0000138c <__vector_13>:
    138c:	1f 92       	push	r1
    138e:	0f 92       	push	r0
    1390:	0f b6       	in	r0, 0x3f	; 63
    1392:	0f 92       	push	r0
    1394:	11 24       	eor	r1, r1
    1396:	2f 93       	push	r18
    1398:	3f 93       	push	r19
    139a:	4f 93       	push	r20
    139c:	5f 93       	push	r21
    139e:	6f 93       	push	r22
    13a0:	7f 93       	push	r23
    13a2:	8f 93       	push	r24
    13a4:	9f 93       	push	r25
    13a6:	af 93       	push	r26
    13a8:	bf 93       	push	r27
    13aa:	ef 93       	push	r30
    13ac:	ff 93       	push	r31
    13ae:	80 91 1c 01 	lds	r24, 0x011C
    13b2:	8f 5f       	subi	r24, 0xFF	; 255
    13b4:	80 93 1c 01 	sts	0x011C, r24
    13b8:	84 36       	cpi	r24, 0x64	; 100
    13ba:	09 f0       	breq	.+2      	; 0x13be <__vector_13+0x32>
    13bc:	5e c0       	rjmp	.+188    	; 0x147a <__vector_13+0xee>
    13be:	80 91 6b 06 	lds	r24, 0x066B
    13c2:	82 5e       	subi	r24, 0xE2	; 226
    13c4:	80 93 6b 06 	sts	0x066B, r24
    13c8:	80 91 6b 06 	lds	r24, 0x066B
    13cc:	8c 33       	cpi	r24, 0x3C	; 60
    13ce:	e8 f1       	brcs	.+122    	; 0x144a <__vector_13+0xbe>
    13d0:	10 92 6b 06 	sts	0x066B, r1
    13d4:	80 91 6c 06 	lds	r24, 0x066C
    13d8:	88 60       	ori	r24, 0x08	; 8
    13da:	80 93 6c 06 	sts	0x066C, r24
    13de:	80 91 6a 06 	lds	r24, 0x066A
    13e2:	86 5f       	subi	r24, 0xF6	; 246
    13e4:	80 93 6a 06 	sts	0x066A, r24
    13e8:	80 91 6c 06 	lds	r24, 0x066C
    13ec:	85 ff       	sbrs	r24, 5
    13ee:	1c c0       	rjmp	.+56     	; 0x1428 <__vector_13+0x9c>
    13f0:	80 91 67 06 	lds	r24, 0x0667
    13f4:	8f 5f       	subi	r24, 0xFF	; 255
    13f6:	80 93 67 06 	sts	0x0667, r24
    13fa:	80 91 67 06 	lds	r24, 0x0667
    13fe:	85 30       	cpi	r24, 0x05	; 5
    1400:	99 f4       	brne	.+38     	; 0x1428 <__vector_13+0x9c>
    1402:	80 91 6c 06 	lds	r24, 0x066C
    1406:	8f 77       	andi	r24, 0x7F	; 127
    1408:	80 93 6c 06 	sts	0x066C, r24
    140c:	80 91 6c 06 	lds	r24, 0x066C
    1410:	86 fd       	sbrc	r24, 6
    1412:	05 c0       	rjmp	.+10     	; 0x141e <__vector_13+0x92>
    1414:	80 91 6c 06 	lds	r24, 0x066C
    1418:	8f 7d       	andi	r24, 0xDF	; 223
    141a:	80 93 6c 06 	sts	0x066C, r24
    141e:	81 e0       	ldi	r24, 0x01	; 1
    1420:	80 93 d0 05 	sts	0x05D0, r24
    1424:	0e 94 c6 24 	call	0x498c	; 0x498c <speaker_stop>
    1428:	80 91 6a 06 	lds	r24, 0x066A
    142c:	8c 33       	cpi	r24, 0x3C	; 60
    142e:	68 f0       	brcs	.+26     	; 0x144a <__vector_13+0xbe>
    1430:	10 92 6a 06 	sts	0x066A, r1
    1434:	80 91 69 06 	lds	r24, 0x0669
    1438:	8f 5f       	subi	r24, 0xFF	; 255
    143a:	80 93 69 06 	sts	0x0669, r24
    143e:	80 91 69 06 	lds	r24, 0x0669
    1442:	87 31       	cpi	r24, 0x17	; 23
    1444:	10 f0       	brcs	.+4      	; 0x144a <__vector_13+0xbe>
    1446:	10 92 69 06 	sts	0x0669, r1
    144a:	80 91 6c 06 	lds	r24, 0x066C
    144e:	81 60       	ori	r24, 0x01	; 1
    1450:	80 93 6c 06 	sts	0x066C, r24
    1454:	10 92 1c 01 	sts	0x011C, r1
    1458:	80 91 d0 05 	lds	r24, 0x05D0
    145c:	88 23       	and	r24, r24
    145e:	69 f0       	breq	.+26     	; 0x147a <__vector_13+0xee>
    1460:	81 50       	subi	r24, 0x01	; 1
    1462:	80 93 d0 05 	sts	0x05D0, r24
    1466:	88 23       	and	r24, r24
    1468:	41 f4       	brne	.+16     	; 0x147a <__vector_13+0xee>
    146a:	80 91 6c 06 	lds	r24, 0x066C
    146e:	81 fd       	sbrc	r24, 1
    1470:	04 c0       	rjmp	.+8      	; 0x147a <__vector_13+0xee>
    1472:	80 91 75 0c 	lds	r24, 0x0C75
    1476:	80 ff       	sbrs	r24, 0
    1478:	12 98       	cbi	0x02, 2	; 2
    147a:	80 91 6c 06 	lds	r24, 0x066C
    147e:	85 ff       	sbrs	r24, 5
    1480:	22 c0       	rjmp	.+68     	; 0x14c6 <__vector_13+0x13a>
    1482:	90 91 69 06 	lds	r25, 0x0669
    1486:	80 91 60 06 	lds	r24, 0x0660
    148a:	98 17       	cp	r25, r24
    148c:	e1 f4       	brne	.+56     	; 0x14c6 <__vector_13+0x13a>
    148e:	90 91 6a 06 	lds	r25, 0x066A
    1492:	80 91 61 06 	lds	r24, 0x0661
    1496:	98 17       	cp	r25, r24
    1498:	b1 f4       	brne	.+44     	; 0x14c6 <__vector_13+0x13a>
    149a:	90 91 6b 06 	lds	r25, 0x066B
    149e:	80 91 62 06 	lds	r24, 0x0662
    14a2:	98 17       	cp	r25, r24
    14a4:	81 f4       	brne	.+32     	; 0x14c6 <__vector_13+0x13a>
    14a6:	0e 94 cc 24 	call	0x4998	; 0x4998 <speaker_isplaying>
    14aa:	88 23       	and	r24, r24
    14ac:	61 f4       	brne	.+24     	; 0x14c6 <__vector_13+0x13a>
    14ae:	10 92 67 06 	sts	0x0667, r1
    14b2:	80 91 6c 06 	lds	r24, 0x066C
    14b6:	80 68       	ori	r24, 0x80	; 128
    14b8:	80 93 6c 06 	sts	0x066C, r24
    14bc:	80 91 68 06 	lds	r24, 0x0668
    14c0:	61 e0       	ldi	r22, 0x01	; 1
    14c2:	0e 94 aa 24 	call	0x4954	; 0x4954 <speaker_start>
    14c6:	04 9b       	sbis	0x00, 4	; 0
    14c8:	06 c0       	rjmp	.+12     	; 0x14d6 <__vector_13+0x14a>
    14ca:	05 9b       	sbis	0x00, 5	; 0
    14cc:	04 c0       	rjmp	.+8      	; 0x14d6 <__vector_13+0x14a>
    14ce:	06 9b       	sbis	0x00, 6	; 0
    14d0:	02 c0       	rjmp	.+4      	; 0x14d6 <__vector_13+0x14a>
    14d2:	07 99       	sbic	0x00, 7	; 0
    14d4:	04 c0       	rjmp	.+8      	; 0x14de <__vector_13+0x152>
    14d6:	85 e0       	ldi	r24, 0x05	; 5
    14d8:	80 93 d0 05 	sts	0x05D0, r24
    14dc:	12 9a       	sbi	0x02, 2	; 2
    14de:	ff 91       	pop	r31
    14e0:	ef 91       	pop	r30
    14e2:	bf 91       	pop	r27
    14e4:	af 91       	pop	r26
    14e6:	9f 91       	pop	r25
    14e8:	8f 91       	pop	r24
    14ea:	7f 91       	pop	r23
    14ec:	6f 91       	pop	r22
    14ee:	5f 91       	pop	r21
    14f0:	4f 91       	pop	r20
    14f2:	3f 91       	pop	r19
    14f4:	2f 91       	pop	r18
    14f6:	0f 90       	pop	r0
    14f8:	0f be       	out	0x3f, r0	; 63
    14fa:	0f 90       	pop	r0
    14fc:	1f 90       	pop	r1
    14fe:	18 95       	reti

00001500 <__vector_9>:
    1500:	1f 92       	push	r1
    1502:	0f 92       	push	r0
    1504:	0f b6       	in	r0, 0x3f	; 63
    1506:	0f 92       	push	r0
    1508:	11 24       	eor	r1, r1
    150a:	0f 93       	push	r16
    150c:	1f 93       	push	r17
    150e:	2f 93       	push	r18
    1510:	3f 93       	push	r19
    1512:	4f 93       	push	r20
    1514:	5f 93       	push	r21
    1516:	6f 93       	push	r22
    1518:	7f 93       	push	r23
    151a:	8f 93       	push	r24
    151c:	9f 93       	push	r25
    151e:	af 93       	push	r26
    1520:	bf 93       	push	r27
    1522:	ef 93       	push	r30
    1524:	ff 93       	push	r31
    1526:	df 93       	push	r29
    1528:	cf 93       	push	r28
    152a:	cd b7       	in	r28, 0x3d	; 61
    152c:	de b7       	in	r29, 0x3e	; 62
    152e:	2f 97       	sbiw	r28, 0x0f	; 15
    1530:	de bf       	out	0x3e, r29	; 62
    1532:	cd bf       	out	0x3d, r28	; 61
    1534:	01 9b       	sbis	0x00, 1	; 0
    1536:	13 c0       	rjmp	.+38     	; 0x155e <__vector_9+0x5e>
    1538:	80 91 cf 05 	lds	r24, 0x05CF
    153c:	8f 5f       	subi	r24, 0xFF	; 255
    153e:	80 93 cf 05 	sts	0x05CF, r24
    1542:	80 91 1b 01 	lds	r24, 0x011B
    1546:	8c 53       	subi	r24, 0x3C	; 60
    1548:	81 35       	cpi	r24, 0x51	; 81
    154a:	48 f0       	brcs	.+18     	; 0x155e <__vector_9+0x5e>
    154c:	80 91 b0 00 	lds	r24, 0x00B0
    1550:	86 30       	cpi	r24, 0x06	; 6
    1552:	28 f0       	brcs	.+10     	; 0x155e <__vector_9+0x5e>
    1554:	80 91 b0 00 	lds	r24, 0x00B0
    1558:	85 50       	subi	r24, 0x05	; 5
    155a:	80 93 b0 00 	sts	0x00B0, r24
    155e:	80 91 1b 01 	lds	r24, 0x011B
    1562:	80 ff       	sbrs	r24, 0
    1564:	7f c0       	rjmp	.+254    	; 0x1664 <__vector_9+0x164>
    1566:	13 98       	cbi	0x02, 3	; 2
    1568:	0e 94 77 05 	call	0xaee	; 0xaee <button_poll>
    156c:	80 91 6c 06 	lds	r24, 0x066C
    1570:	87 ff       	sbrs	r24, 7
    1572:	23 c0       	rjmp	.+70     	; 0x15ba <__vector_9+0xba>
    1574:	82 e0       	ldi	r24, 0x02	; 2
    1576:	0e 94 38 06 	call	0xc70	; 0xc70 <button_is_down>
    157a:	88 23       	and	r24, r24
    157c:	71 f4       	brne	.+28     	; 0x159a <__vector_9+0x9a>
    157e:	83 e0       	ldi	r24, 0x03	; 3
    1580:	0e 94 38 06 	call	0xc70	; 0xc70 <button_is_down>
    1584:	88 23       	and	r24, r24
    1586:	49 f4       	brne	.+18     	; 0x159a <__vector_9+0x9a>
    1588:	0e 94 38 06 	call	0xc70	; 0xc70 <button_is_down>
    158c:	88 23       	and	r24, r24
    158e:	29 f4       	brne	.+10     	; 0x159a <__vector_9+0x9a>
    1590:	81 e0       	ldi	r24, 0x01	; 1
    1592:	0e 94 38 06 	call	0xc70	; 0xc70 <button_is_down>
    1596:	88 23       	and	r24, r24
    1598:	81 f0       	breq	.+32     	; 0x15ba <__vector_9+0xba>
    159a:	80 91 6c 06 	lds	r24, 0x066C
    159e:	8f 77       	andi	r24, 0x7F	; 127
    15a0:	80 93 6c 06 	sts	0x066C, r24
    15a4:	80 91 6c 06 	lds	r24, 0x066C
    15a8:	86 fd       	sbrc	r24, 6
    15aa:	05 c0       	rjmp	.+10     	; 0x15b6 <__vector_9+0xb6>
    15ac:	80 91 6c 06 	lds	r24, 0x066C
    15b0:	8f 7d       	andi	r24, 0xDF	; 223
    15b2:	80 93 6c 06 	sts	0x066C, r24
    15b6:	0e 94 c6 24 	call	0x498c	; 0x498c <speaker_stop>
    15ba:	80 91 6c 06 	lds	r24, 0x066C
    15be:	81 ff       	sbrs	r24, 1
    15c0:	45 c0       	rjmp	.+138    	; 0x164c <__vector_9+0x14c>
    15c2:	80 e0       	ldi	r24, 0x00	; 0
    15c4:	0e 94 38 06 	call	0xc70	; 0xc70 <button_is_down>
    15c8:	88 23       	and	r24, r24
    15ca:	29 f0       	breq	.+10     	; 0x15d6 <__vector_9+0xd6>
    15cc:	10 92 ce 05 	sts	0x05CE, r1
    15d0:	0e 94 cc 20 	call	0x4198	; 0x4198 <menu_plus>
    15d4:	19 c0       	rjmp	.+50     	; 0x1608 <__vector_9+0x108>
    15d6:	81 e0       	ldi	r24, 0x01	; 1
    15d8:	0e 94 38 06 	call	0xc70	; 0xc70 <button_is_down>
    15dc:	88 23       	and	r24, r24
    15de:	29 f0       	breq	.+10     	; 0x15ea <__vector_9+0xea>
    15e0:	10 92 cd 05 	sts	0x05CD, r1
    15e4:	0e 94 87 1f 	call	0x3f0e	; 0x3f0e <menu_minus>
    15e8:	0f c0       	rjmp	.+30     	; 0x1608 <__vector_9+0x108>
    15ea:	82 e0       	ldi	r24, 0x02	; 2
    15ec:	0e 94 38 06 	call	0xc70	; 0xc70 <button_is_down>
    15f0:	88 23       	and	r24, r24
    15f2:	19 f0       	breq	.+6      	; 0x15fa <__vector_9+0xfa>
    15f4:	0e 94 1e 22 	call	0x443c	; 0x443c <menu_save>
    15f8:	07 c0       	rjmp	.+14     	; 0x1608 <__vector_9+0x108>
    15fa:	83 e0       	ldi	r24, 0x03	; 3
    15fc:	0e 94 38 06 	call	0xc70	; 0xc70 <button_is_down>
    1600:	88 23       	and	r24, r24
    1602:	11 f0       	breq	.+4      	; 0x1608 <__vector_9+0x108>
    1604:	0e 94 25 1d 	call	0x3a4a	; 0x3a4a <menu_select>
    1608:	80 e0       	ldi	r24, 0x00	; 0
    160a:	0e 94 4e 06 	call	0xc9c	; 0xc9c <button_is_hold>
    160e:	88 23       	and	r24, r24
    1610:	61 f0       	breq	.+24     	; 0x162a <__vector_9+0x12a>
    1612:	80 91 ce 05 	lds	r24, 0x05CE
    1616:	8f 5f       	subi	r24, 0xFF	; 255
    1618:	80 93 ce 05 	sts	0x05CE, r24
    161c:	82 33       	cpi	r24, 0x32	; 50
    161e:	11 f5       	brne	.+68     	; 0x1664 <__vector_9+0x164>
    1620:	10 92 ce 05 	sts	0x05CE, r1
    1624:	0e 94 cc 20 	call	0x4198	; 0x4198 <menu_plus>
    1628:	1d c0       	rjmp	.+58     	; 0x1664 <__vector_9+0x164>
    162a:	81 e0       	ldi	r24, 0x01	; 1
    162c:	0e 94 4e 06 	call	0xc9c	; 0xc9c <button_is_hold>
    1630:	88 23       	and	r24, r24
    1632:	c1 f0       	breq	.+48     	; 0x1664 <__vector_9+0x164>
    1634:	80 91 cd 05 	lds	r24, 0x05CD
    1638:	8f 5f       	subi	r24, 0xFF	; 255
    163a:	80 93 cd 05 	sts	0x05CD, r24
    163e:	82 33       	cpi	r24, 0x32	; 50
    1640:	89 f4       	brne	.+34     	; 0x1664 <__vector_9+0x164>
    1642:	10 92 cd 05 	sts	0x05CD, r1
    1646:	0e 94 87 1f 	call	0x3f0e	; 0x3f0e <menu_minus>
    164a:	0c c0       	rjmp	.+24     	; 0x1664 <__vector_9+0x164>
    164c:	82 e0       	ldi	r24, 0x02	; 2
    164e:	0e 94 38 06 	call	0xc70	; 0xc70 <button_is_down>
    1652:	88 23       	and	r24, r24
    1654:	39 f0       	breq	.+14     	; 0x1664 <__vector_9+0x164>
    1656:	0e 94 77 18 	call	0x30ee	; 0x30ee <menu_start>
    165a:	80 91 6c 06 	lds	r24, 0x066C
    165e:	82 60       	ori	r24, 0x02	; 2
    1660:	80 93 6c 06 	sts	0x066C, r24
    1664:	80 91 1b 01 	lds	r24, 0x011B
    1668:	8f 5f       	subi	r24, 0xFF	; 255
    166a:	80 93 1b 01 	sts	0x011B, r24
    166e:	88 3c       	cpi	r24, 0xC8	; 200
    1670:	09 f0       	breq	.+2      	; 0x1674 <__vector_9+0x174>
    1672:	e6 c0       	rjmp	.+460    	; 0x1840 <__vector_9+0x340>
    1674:	80 91 6c 06 	lds	r24, 0x066C
    1678:	81 fd       	sbrc	r24, 1
    167a:	3e c0       	rjmp	.+124    	; 0x16f8 <__vector_9+0x1f8>
    167c:	80 91 6c 06 	lds	r24, 0x066C
    1680:	83 ff       	sbrs	r24, 3
    1682:	3a c0       	rjmp	.+116    	; 0x16f8 <__vector_9+0x1f8>
    1684:	30 91 69 06 	lds	r19, 0x0669
    1688:	20 91 6a 06 	lds	r18, 0x066A
    168c:	8d b7       	in	r24, 0x3d	; 61
    168e:	9e b7       	in	r25, 0x3e	; 62
    1690:	08 97       	sbiw	r24, 0x08	; 8
    1692:	0f b6       	in	r0, 0x3f	; 63
    1694:	f8 94       	cli
    1696:	9e bf       	out	0x3e, r25	; 62
    1698:	0f be       	out	0x3f, r0	; 63
    169a:	8d bf       	out	0x3d, r24	; 61
    169c:	ed b7       	in	r30, 0x3d	; 61
    169e:	fe b7       	in	r31, 0x3e	; 62
    16a0:	31 96       	adiw	r30, 0x01	; 1
    16a2:	8e 01       	movw	r16, r28
    16a4:	0f 5f       	subi	r16, 0xFF	; 255
    16a6:	1f 4f       	sbci	r17, 0xFF	; 255
    16a8:	ad b7       	in	r26, 0x3d	; 61
    16aa:	be b7       	in	r27, 0x3e	; 62
    16ac:	12 96       	adiw	r26, 0x02	; 2
    16ae:	1c 93       	st	X, r17
    16b0:	0e 93       	st	-X, r16
    16b2:	11 97       	sbiw	r26, 0x01	; 1
    16b4:	80 e0       	ldi	r24, 0x00	; 0
    16b6:	91 e0       	ldi	r25, 0x01	; 1
    16b8:	93 83       	std	Z+3, r25	; 0x03
    16ba:	82 83       	std	Z+2, r24	; 0x02
    16bc:	34 83       	std	Z+4, r19	; 0x04
    16be:	15 82       	std	Z+5, r1	; 0x05
    16c0:	26 83       	std	Z+6, r18	; 0x06
    16c2:	17 82       	std	Z+7, r1	; 0x07
    16c4:	0e 94 f0 25 	call	0x4be0	; 0x4be0 <sprintf>
    16c8:	2d b7       	in	r18, 0x3d	; 61
    16ca:	3e b7       	in	r19, 0x3e	; 62
    16cc:	28 5f       	subi	r18, 0xF8	; 248
    16ce:	3f 4f       	sbci	r19, 0xFF	; 255
    16d0:	0f b6       	in	r0, 0x3f	; 63
    16d2:	f8 94       	cli
    16d4:	3e bf       	out	0x3e, r19	; 62
    16d6:	0f be       	out	0x3f, r0	; 63
    16d8:	2d bf       	out	0x3d, r18	; 61
    16da:	84 e1       	ldi	r24, 0x14	; 20
    16dc:	60 e0       	ldi	r22, 0x00	; 0
    16de:	0e 94 56 0e 	call	0x1cac	; 0x1cac <lcd_setpos>
    16e2:	c8 01       	movw	r24, r16
    16e4:	60 e0       	ldi	r22, 0x00	; 0
    16e6:	0e 94 f4 0d 	call	0x1be8	; 0x1be8 <lcd_putstrbig>
    16ea:	0e 94 0e 0d 	call	0x1a1c	; 0x1a1c <lcd_redraw>
    16ee:	80 91 6c 06 	lds	r24, 0x066C
    16f2:	87 7f       	andi	r24, 0xF7	; 247
    16f4:	80 93 6c 06 	sts	0x066C, r24
    16f8:	80 91 6c 06 	lds	r24, 0x066C
    16fc:	82 ff       	sbrs	r24, 2
    16fe:	98 c0       	rjmp	.+304    	; 0x1830 <__vector_9+0x330>
    1700:	80 91 5e 06 	lds	r24, 0x065E
    1704:	84 ff       	sbrs	r24, 4
    1706:	40 c0       	rjmp	.+128    	; 0x1788 <__vector_9+0x288>
    1708:	80 91 5e 06 	lds	r24, 0x065E
    170c:	83 ff       	sbrs	r24, 3
    170e:	3c c0       	rjmp	.+120    	; 0x1788 <__vector_9+0x288>
    1710:	80 91 69 06 	lds	r24, 0x0669
    1714:	30 91 6a 06 	lds	r19, 0x066A
    1718:	24 e6       	ldi	r18, 0x64	; 100
    171a:	82 9f       	mul	r24, r18
    171c:	c0 01       	movw	r24, r0
    171e:	11 24       	eor	r1, r1
    1720:	83 0f       	add	r24, r19
    1722:	91 1d       	adc	r25, r1
    1724:	30 91 58 06 	lds	r19, 0x0658
    1728:	40 91 57 06 	lds	r20, 0x0657
    172c:	32 9f       	mul	r19, r18
    172e:	90 01       	movw	r18, r0
    1730:	11 24       	eor	r1, r1
    1732:	24 0f       	add	r18, r20
    1734:	31 1d       	adc	r19, r1
    1736:	40 91 5e 06 	lds	r20, 0x065E
    173a:	41 ff       	sbrs	r20, 1
    173c:	03 c0       	rjmp	.+6      	; 0x1744 <__vector_9+0x244>
    173e:	48 ec       	ldi	r20, 0xC8	; 200
    1740:	50 e0       	ldi	r21, 0x00	; 0
    1742:	02 c0       	rjmp	.+4      	; 0x1748 <__vector_9+0x248>
    1744:	40 e0       	ldi	r20, 0x00	; 0
    1746:	50 e0       	ldi	r21, 0x00	; 0
    1748:	28 1b       	sub	r18, r24
    174a:	39 0b       	sbc	r19, r25
    174c:	4b 5f       	subi	r20, 0xFB	; 251
    174e:	5f 4f       	sbci	r21, 0xFF	; 255
    1750:	24 17       	cp	r18, r20
    1752:	35 07       	cpc	r19, r21
    1754:	20 f0       	brcs	.+8      	; 0x175e <__vector_9+0x25e>
    1756:	80 91 6c 06 	lds	r24, 0x066C
    175a:	84 ff       	sbrs	r24, 4
    175c:	15 c0       	rjmp	.+42     	; 0x1788 <__vector_9+0x288>
    175e:	80 91 58 06 	lds	r24, 0x0658
    1762:	80 93 69 06 	sts	0x0669, r24
    1766:	80 91 57 06 	lds	r24, 0x0657
    176a:	80 93 6a 06 	sts	0x066A, r24
    176e:	81 e0       	ldi	r24, 0x01	; 1
    1770:	80 93 6b 06 	sts	0x066B, r24
    1774:	80 91 6c 06 	lds	r24, 0x066C
    1778:	88 60       	ori	r24, 0x08	; 8
    177a:	80 93 6c 06 	sts	0x066C, r24
    177e:	80 91 6c 06 	lds	r24, 0x066C
    1782:	8f 7e       	andi	r24, 0xEF	; 239
    1784:	80 93 6c 06 	sts	0x066C, r24
    1788:	80 91 5e 06 	lds	r24, 0x065E
    178c:	85 ff       	sbrs	r24, 5
    178e:	4b c0       	rjmp	.+150    	; 0x1826 <__vector_9+0x326>
    1790:	80 91 59 06 	lds	r24, 0x0659
    1794:	80 93 63 06 	sts	0x0663, r24
    1798:	80 91 5b 06 	lds	r24, 0x065B
    179c:	80 93 64 06 	sts	0x0664, r24
    17a0:	80 91 5c 06 	lds	r24, 0x065C
    17a4:	90 91 5d 06 	lds	r25, 0x065D
    17a8:	80 53       	subi	r24, 0x30	; 48
    17aa:	98 4f       	sbci	r25, 0xF8	; 248
    17ac:	90 93 66 06 	sts	0x0666, r25
    17b0:	80 93 65 06 	sts	0x0665, r24
    17b4:	50 91 63 06 	lds	r21, 0x0663
    17b8:	40 91 64 06 	lds	r20, 0x0664
    17bc:	80 91 65 06 	lds	r24, 0x0665
    17c0:	90 91 66 06 	lds	r25, 0x0666
    17c4:	ad b7       	in	r26, 0x3d	; 61
    17c6:	be b7       	in	r27, 0x3e	; 62
    17c8:	1a 97       	sbiw	r26, 0x0a	; 10
    17ca:	0f b6       	in	r0, 0x3f	; 63
    17cc:	f8 94       	cli
    17ce:	be bf       	out	0x3e, r27	; 62
    17d0:	0f be       	out	0x3f, r0	; 63
    17d2:	ad bf       	out	0x3d, r26	; 61
    17d4:	ed b7       	in	r30, 0x3d	; 61
    17d6:	fe b7       	in	r31, 0x3e	; 62
    17d8:	31 96       	adiw	r30, 0x01	; 1
    17da:	8e 01       	movw	r16, r28
    17dc:	0f 5f       	subi	r16, 0xFF	; 255
    17de:	1f 4f       	sbci	r17, 0xFF	; 255
    17e0:	12 96       	adiw	r26, 0x02	; 2
    17e2:	1c 93       	st	X, r17
    17e4:	0e 93       	st	-X, r16
    17e6:	11 97       	sbiw	r26, 0x01	; 1
    17e8:	2b e0       	ldi	r18, 0x0B	; 11
    17ea:	31 e0       	ldi	r19, 0x01	; 1
    17ec:	33 83       	std	Z+3, r19	; 0x03
    17ee:	22 83       	std	Z+2, r18	; 0x02
    17f0:	54 83       	std	Z+4, r21	; 0x04
    17f2:	15 82       	std	Z+5, r1	; 0x05
    17f4:	46 83       	std	Z+6, r20	; 0x06
    17f6:	17 82       	std	Z+7, r1	; 0x07
    17f8:	91 87       	std	Z+9, r25	; 0x09
    17fa:	80 87       	std	Z+8, r24	; 0x08
    17fc:	0e 94 f0 25 	call	0x4be0	; 0x4be0 <sprintf>
    1800:	2d b7       	in	r18, 0x3d	; 61
    1802:	3e b7       	in	r19, 0x3e	; 62
    1804:	26 5f       	subi	r18, 0xF6	; 246
    1806:	3f 4f       	sbci	r19, 0xFF	; 255
    1808:	0f b6       	in	r0, 0x3f	; 63
    180a:	f8 94       	cli
    180c:	3e bf       	out	0x3e, r19	; 62
    180e:	0f be       	out	0x3f, r0	; 63
    1810:	2d bf       	out	0x3d, r18	; 61
    1812:	82 e2       	ldi	r24, 0x22	; 34
    1814:	64 e0       	ldi	r22, 0x04	; 4
    1816:	0e 94 56 0e 	call	0x1cac	; 0x1cac <lcd_setpos>
    181a:	c8 01       	movw	r24, r16
    181c:	60 e0       	ldi	r22, 0x00	; 0
    181e:	0e 94 dd 0d 	call	0x1bba	; 0x1bba <lcd_putstr>
    1822:	0e 94 0e 0d 	call	0x1a1c	; 0x1a1c <lcd_redraw>
    1826:	80 91 6c 06 	lds	r24, 0x066C
    182a:	8b 7f       	andi	r24, 0xFB	; 251
    182c:	80 93 6c 06 	sts	0x066C, r24
    1830:	80 91 cf 05 	lds	r24, 0x05CF
    1834:	0e 94 05 09 	call	0x120a	; 0x120a <dcf_signal>
    1838:	10 92 1b 01 	sts	0x011B, r1
    183c:	10 92 cf 05 	sts	0x05CF, r1
    1840:	2f 96       	adiw	r28, 0x0f	; 15
    1842:	de bf       	out	0x3e, r29	; 62
    1844:	cd bf       	out	0x3d, r28	; 61
    1846:	cf 91       	pop	r28
    1848:	df 91       	pop	r29
    184a:	ff 91       	pop	r31
    184c:	ef 91       	pop	r30
    184e:	bf 91       	pop	r27
    1850:	af 91       	pop	r26
    1852:	9f 91       	pop	r25
    1854:	8f 91       	pop	r24
    1856:	7f 91       	pop	r23
    1858:	6f 91       	pop	r22
    185a:	5f 91       	pop	r21
    185c:	4f 91       	pop	r20
    185e:	3f 91       	pop	r19
    1860:	2f 91       	pop	r18
    1862:	1f 91       	pop	r17
    1864:	0f 91       	pop	r16
    1866:	0f 90       	pop	r0
    1868:	0f be       	out	0x3f, r0	; 63
    186a:	0f 90       	pop	r0
    186c:	1f 90       	pop	r1
    186e:	18 95       	reti

00001870 <main>:
    1870:	8d e0       	ldi	r24, 0x0D	; 13
    1872:	81 b9       	out	0x01, r24	; 1
    1874:	8f eb       	ldi	r24, 0xBF	; 191
    1876:	84 b9       	out	0x04, r24	; 4
    1878:	83 ec       	ldi	r24, 0xC3	; 195
    187a:	87 b9       	out	0x07, r24	; 7
    187c:	8f ef       	ldi	r24, 0xFF	; 255
    187e:	8a b9       	out	0x0a, r24	; 10
    1880:	12 b8       	out	0x02, r1	; 2
    1882:	84 e0       	ldi	r24, 0x04	; 4
    1884:	85 b9       	out	0x05, r24	; 5
    1886:	18 b8       	out	0x08, r1	; 8
    1888:	37 e0       	ldi	r19, 0x07	; 7
    188a:	3b b9       	out	0x0b, r19	; 11
    188c:	22 e0       	ldi	r18, 0x02	; 2
    188e:	24 bd       	out	0x24, r18	; 36
    1890:	83 e0       	ldi	r24, 0x03	; 3
    1892:	85 bd       	out	0x25, r24	; 37
    1894:	81 e3       	ldi	r24, 0x31	; 49
    1896:	87 bd       	out	0x27, r24	; 39
    1898:	20 93 6e 00 	sts	0x006E, r18
    189c:	8a e0       	ldi	r24, 0x0A	; 10
    189e:	80 93 81 00 	sts	0x0081, r24
    18a2:	88 ea       	ldi	r24, 0xA8	; 168
    18a4:	91 e6       	ldi	r25, 0x61	; 97
    18a6:	90 93 89 00 	sts	0x0089, r25
    18aa:	80 93 88 00 	sts	0x0088, r24
    18ae:	20 93 6f 00 	sts	0x006F, r18
    18b2:	20 93 b0 00 	sts	0x00B0, r18
    18b6:	30 93 b1 00 	sts	0x00B1, r19
    18ba:	82 e6       	ldi	r24, 0x62	; 98
    18bc:	80 93 b3 00 	sts	0x00B3, r24
    18c0:	20 93 70 00 	sts	0x0070, r18
    18c4:	10 92 6c 06 	sts	0x066C, r1
    18c8:	10 92 69 06 	sts	0x0669, r1
    18cc:	10 92 6a 06 	sts	0x066A, r1
    18d0:	10 92 6b 06 	sts	0x066B, r1
    18d4:	10 92 62 06 	sts	0x0662, r1
    18d8:	10 92 60 06 	sts	0x0660, r1
    18dc:	e0 e6       	ldi	r30, 0x60	; 96
    18de:	f6 e0       	ldi	r31, 0x06	; 6
    18e0:	11 82       	std	Z+1, r1	; 0x01
    18e2:	10 92 68 06 	sts	0x0668, r1
    18e6:	10 92 67 06 	sts	0x0667, r1
    18ea:	10 92 63 06 	sts	0x0663, r1
    18ee:	10 92 64 06 	sts	0x0664, r1
    18f2:	10 92 66 06 	sts	0x0666, r1
    18f6:	10 92 65 06 	sts	0x0665, r1
    18fa:	0e 94 9c 0f 	call	0x1f38	; 0x1f38 <lcd_init>
    18fe:	0e 94 c1 0c 	call	0x1982	; 0x1982 <lcd_clear>
    1902:	0e 94 0e 0d 	call	0x1a1c	; 0x1a1c <lcd_redraw>
    1906:	0e 94 31 12 	call	0x2462	; 0x2462 <lcd_show_gecco>
    190a:	12 9a       	sbi	0x02, 2	; 2
    190c:	8f e7       	ldi	r24, 0x7F	; 127
    190e:	94 e8       	ldi	r25, 0x84	; 132
    1910:	ae e1       	ldi	r26, 0x1E	; 30
    1912:	81 50       	subi	r24, 0x01	; 1
    1914:	90 40       	sbci	r25, 0x00	; 0
    1916:	a0 40       	sbci	r26, 0x00	; 0
    1918:	e1 f7       	brne	.-8      	; 0x1912 <main+0xa2>
    191a:	00 c0       	rjmp	.+0      	; 0x191c <main+0xac>
    191c:	00 00       	nop
    191e:	0e 94 e4 12 	call	0x25c8	; 0x25c8 <led_zeiger_init>
    1922:	0e 94 d2 13 	call	0x27a4	; 0x27a4 <led_zeiger_typ1>
    1926:	80 91 69 06 	lds	r24, 0x0669
    192a:	60 91 6a 06 	lds	r22, 0x066A
    192e:	40 91 6b 06 	lds	r20, 0x066B
    1932:	0e 94 5e 17 	call	0x2ebc	; 0x2ebc <led_zeiger_update>
    1936:	80 91 6c 06 	lds	r24, 0x066C
    193a:	88 60       	ori	r24, 0x08	; 8
    193c:	80 93 6c 06 	sts	0x066C, r24
    1940:	0e 94 84 07 	call	0xf08	; 0xf08 <dcf_init>
    1944:	0e 94 31 18 	call	0x3062	; 0x3062 <menu_init>
    1948:	0e 94 a5 24 	call	0x494a	; 0x494a <speaker_init>
    194c:	0e 94 59 06 	call	0xcb2	; 0xcb2 <config_read>
    1950:	88 23       	and	r24, r24
    1952:	59 f0       	breq	.+22     	; 0x196a <main+0xfa>
    1954:	81 e0       	ldi	r24, 0x01	; 1
    1956:	0e 94 65 14 	call	0x28ca	; 0x28ca <led_zeiger_recreate>
    195a:	80 91 69 06 	lds	r24, 0x0669
    195e:	60 91 6a 06 	lds	r22, 0x066A
    1962:	40 91 6b 06 	lds	r20, 0x066B
    1966:	0e 94 5e 17 	call	0x2ebc	; 0x2ebc <led_zeiger_update>
    196a:	80 91 6c 06 	lds	r24, 0x066C
    196e:	80 61       	ori	r24, 0x10	; 16
    1970:	80 93 6c 06 	sts	0x066C, r24
    1974:	0e 94 c1 0c 	call	0x1982	; 0x1982 <lcd_clear>
    1978:	0e 94 0e 0d 	call	0x1a1c	; 0x1a1c <lcd_redraw>
    197c:	12 98       	cbi	0x02, 2	; 2
    197e:	78 94       	sei
    1980:	ff cf       	rjmp	.-2      	; 0x1980 <main+0x110>

00001982 <lcd_clear>:
    1982:	80 e0       	ldi	r24, 0x00	; 0
    1984:	e8 2f       	mov	r30, r24
    1986:	f0 e0       	ldi	r31, 0x00	; 0
    1988:	93 e0       	ldi	r25, 0x03	; 3
    198a:	ee 0f       	add	r30, r30
    198c:	ff 1f       	adc	r31, r31
    198e:	9a 95       	dec	r25
    1990:	e1 f7       	brne	.-8      	; 0x198a <lcd_clear+0x8>
    1992:	e3 59       	subi	r30, 0x93	; 147
    1994:	f9 4f       	sbci	r31, 0xF9	; 249
    1996:	10 82       	st	Z, r1
    1998:	11 82       	std	Z+1, r1	; 0x01
    199a:	12 82       	std	Z+2, r1	; 0x02
    199c:	13 82       	std	Z+3, r1	; 0x03
    199e:	14 82       	std	Z+4, r1	; 0x04
    19a0:	15 82       	std	Z+5, r1	; 0x05
    19a2:	16 82       	std	Z+6, r1	; 0x06
    19a4:	17 82       	std	Z+7, r1	; 0x07
    19a6:	8f 5f       	subi	r24, 0xFF	; 255
    19a8:	80 38       	cpi	r24, 0x80	; 128
    19aa:	61 f7       	brne	.-40     	; 0x1984 <lcd_clear+0x2>
    19ac:	10 92 8c 0a 	sts	0x0A8C, r1
    19b0:	10 92 8d 0a 	sts	0x0A8D, r1
    19b4:	08 95       	ret

000019b6 <lcd_clear_cs1>:
    19b6:	80 e0       	ldi	r24, 0x00	; 0
    19b8:	90 e0       	ldi	r25, 0x00	; 0
    19ba:	fc 01       	movw	r30, r24
    19bc:	23 e0       	ldi	r18, 0x03	; 3
    19be:	ee 0f       	add	r30, r30
    19c0:	ff 1f       	adc	r31, r31
    19c2:	2a 95       	dec	r18
    19c4:	e1 f7       	brne	.-8      	; 0x19be <lcd_clear_cs1+0x8>
    19c6:	e3 59       	subi	r30, 0x93	; 147
    19c8:	f9 4f       	sbci	r31, 0xF9	; 249
    19ca:	10 82       	st	Z, r1
    19cc:	11 82       	std	Z+1, r1	; 0x01
    19ce:	12 82       	std	Z+2, r1	; 0x02
    19d0:	13 82       	std	Z+3, r1	; 0x03
    19d2:	14 82       	std	Z+4, r1	; 0x04
    19d4:	15 82       	std	Z+5, r1	; 0x05
    19d6:	16 82       	std	Z+6, r1	; 0x06
    19d8:	17 82       	std	Z+7, r1	; 0x07
    19da:	01 96       	adiw	r24, 0x01	; 1
    19dc:	80 34       	cpi	r24, 0x40	; 64
    19de:	91 05       	cpc	r25, r1
    19e0:	61 f7       	brne	.-40     	; 0x19ba <lcd_clear_cs1+0x4>
    19e2:	08 95       	ret

000019e4 <lcd_clear_cs2>:
    19e4:	80 e4       	ldi	r24, 0x40	; 64
    19e6:	90 e0       	ldi	r25, 0x00	; 0
    19e8:	0f c0       	rjmp	.+30     	; 0x1a08 <lcd_clear_cs2+0x24>
    19ea:	fa 01       	movw	r30, r20
    19ec:	e2 0f       	add	r30, r18
    19ee:	f3 1f       	adc	r31, r19
    19f0:	e3 59       	subi	r30, 0x93	; 147
    19f2:	f9 4f       	sbci	r31, 0xF9	; 249
    19f4:	10 82       	st	Z, r1
    19f6:	2f 5f       	subi	r18, 0xFF	; 255
    19f8:	3f 4f       	sbci	r19, 0xFF	; 255
    19fa:	28 30       	cpi	r18, 0x08	; 8
    19fc:	31 05       	cpc	r19, r1
    19fe:	a9 f7       	brne	.-22     	; 0x19ea <lcd_clear_cs2+0x6>
    1a00:	01 96       	adiw	r24, 0x01	; 1
    1a02:	80 38       	cpi	r24, 0x80	; 128
    1a04:	91 05       	cpc	r25, r1
    1a06:	49 f0       	breq	.+18     	; 0x1a1a <lcd_clear_cs2+0x36>
    1a08:	20 e0       	ldi	r18, 0x00	; 0
    1a0a:	30 e0       	ldi	r19, 0x00	; 0
    1a0c:	ac 01       	movw	r20, r24
    1a0e:	63 e0       	ldi	r22, 0x03	; 3
    1a10:	44 0f       	add	r20, r20
    1a12:	55 1f       	adc	r21, r21
    1a14:	6a 95       	dec	r22
    1a16:	e1 f7       	brne	.-8      	; 0x1a10 <lcd_clear_cs2+0x2c>
    1a18:	e8 cf       	rjmp	.-48     	; 0x19ea <lcd_clear_cs2+0x6>
    1a1a:	08 95       	ret

00001a1c <lcd_redraw>:
    1a1c:	80 91 6d 0a 	lds	r24, 0x0A6D
    1a20:	80 ff       	sbrs	r24, 0
    1a22:	04 c0       	rjmp	.+8      	; 0x1a2c <lcd_redraw+0x10>
    1a24:	80 91 6d 0a 	lds	r24, 0x0A6D
    1a28:	80 61       	ori	r24, 0x10	; 16
    1a2a:	03 c0       	rjmp	.+6      	; 0x1a32 <lcd_redraw+0x16>
    1a2c:	80 91 6d 0a 	lds	r24, 0x0A6D
    1a30:	81 60       	ori	r24, 0x01	; 1
    1a32:	80 93 6d 0a 	sts	0x0A6D, r24
    1a36:	80 91 6d 0a 	lds	r24, 0x0A6D
    1a3a:	81 ff       	sbrs	r24, 1
    1a3c:	04 c0       	rjmp	.+8      	; 0x1a46 <lcd_redraw+0x2a>
    1a3e:	80 91 6d 0a 	lds	r24, 0x0A6D
    1a42:	80 62       	ori	r24, 0x20	; 32
    1a44:	03 c0       	rjmp	.+6      	; 0x1a4c <lcd_redraw+0x30>
    1a46:	80 91 6d 0a 	lds	r24, 0x0A6D
    1a4a:	82 60       	ori	r24, 0x02	; 2
    1a4c:	80 93 6d 0a 	sts	0x0A6D, r24
    1a50:	08 95       	ret

00001a52 <lcd_redraw_cs1>:
    1a52:	80 91 6d 0a 	lds	r24, 0x0A6D
    1a56:	80 ff       	sbrs	r24, 0
    1a58:	04 c0       	rjmp	.+8      	; 0x1a62 <lcd_redraw_cs1+0x10>
    1a5a:	80 91 6d 0a 	lds	r24, 0x0A6D
    1a5e:	80 61       	ori	r24, 0x10	; 16
    1a60:	03 c0       	rjmp	.+6      	; 0x1a68 <lcd_redraw_cs1+0x16>
    1a62:	80 91 6d 0a 	lds	r24, 0x0A6D
    1a66:	81 60       	ori	r24, 0x01	; 1
    1a68:	80 93 6d 0a 	sts	0x0A6D, r24
    1a6c:	08 95       	ret

00001a6e <lcd_redraw_cs2>:
    1a6e:	80 91 6d 0a 	lds	r24, 0x0A6D
    1a72:	81 ff       	sbrs	r24, 1
    1a74:	04 c0       	rjmp	.+8      	; 0x1a7e <lcd_redraw_cs2+0x10>
    1a76:	80 91 6d 0a 	lds	r24, 0x0A6D
    1a7a:	80 62       	ori	r24, 0x20	; 32
    1a7c:	03 c0       	rjmp	.+6      	; 0x1a84 <lcd_redraw_cs2+0x16>
    1a7e:	80 91 6d 0a 	lds	r24, 0x0A6D
    1a82:	82 60       	ori	r24, 0x02	; 2
    1a84:	80 93 6d 0a 	sts	0x0A6D, r24
    1a88:	08 95       	ret

00001a8a <lcd_add_cmd>:
    1a8a:	20 91 d2 05 	lds	r18, 0x05D2
    1a8e:	30 e0       	ldi	r19, 0x00	; 0
    1a90:	f9 01       	movw	r30, r18
    1a92:	ee 0f       	add	r30, r30
    1a94:	ff 1f       	adc	r31, r31
    1a96:	e2 0f       	add	r30, r18
    1a98:	f3 1f       	adc	r31, r19
    1a9a:	e2 59       	subi	r30, 0x92	; 146
    1a9c:	f5 4f       	sbci	r31, 0xF5	; 245
    1a9e:	61 83       	std	Z+1, r22	; 0x01
    1aa0:	20 91 d2 05 	lds	r18, 0x05D2
    1aa4:	30 e0       	ldi	r19, 0x00	; 0
    1aa6:	f9 01       	movw	r30, r18
    1aa8:	ee 0f       	add	r30, r30
    1aaa:	ff 1f       	adc	r31, r31
    1aac:	e2 0f       	add	r30, r18
    1aae:	f3 1f       	adc	r31, r19
    1ab0:	e2 59       	subi	r30, 0x92	; 146
    1ab2:	f5 4f       	sbci	r31, 0xF5	; 245
    1ab4:	80 83       	st	Z, r24
    1ab6:	80 91 d2 05 	lds	r24, 0x05D2
    1aba:	90 e0       	ldi	r25, 0x00	; 0
    1abc:	fc 01       	movw	r30, r24
    1abe:	ee 0f       	add	r30, r30
    1ac0:	ff 1f       	adc	r31, r31
    1ac2:	e8 0f       	add	r30, r24
    1ac4:	f9 1f       	adc	r31, r25
    1ac6:	e2 59       	subi	r30, 0x92	; 146
    1ac8:	f5 4f       	sbci	r31, 0xF5	; 245
    1aca:	42 83       	std	Z+2, r20	; 0x02
    1acc:	80 91 d2 05 	lds	r24, 0x05D2
    1ad0:	8f 5f       	subi	r24, 0xFF	; 255
    1ad2:	80 93 d2 05 	sts	0x05D2, r24
    1ad6:	80 91 d2 05 	lds	r24, 0x05D2
    1ada:	8a 30       	cpi	r24, 0x0A	; 10
    1adc:	10 f0       	brcs	.+4      	; 0x1ae2 <lcd_add_cmd+0x58>
    1ade:	10 92 d2 05 	sts	0x05D2, r1
    1ae2:	80 91 d2 05 	lds	r24, 0x05D2
    1ae6:	90 e0       	ldi	r25, 0x00	; 0
    1ae8:	fc 01       	movw	r30, r24
    1aea:	ee 0f       	add	r30, r30
    1aec:	ff 1f       	adc	r31, r31
    1aee:	e8 0f       	add	r30, r24
    1af0:	f9 1f       	adc	r31, r25
    1af2:	e2 59       	subi	r30, 0x92	; 146
    1af4:	f5 4f       	sbci	r31, 0xF5	; 245
    1af6:	11 82       	std	Z+1, r1	; 0x01
    1af8:	08 95       	ret

00001afa <lcd_put>:
    1afa:	e0 91 8c 0a 	lds	r30, 0x0A8C
    1afe:	f0 e0       	ldi	r31, 0x00	; 0
    1b00:	90 91 8d 0a 	lds	r25, 0x0A8D
    1b04:	23 e0       	ldi	r18, 0x03	; 3
    1b06:	ee 0f       	add	r30, r30
    1b08:	ff 1f       	adc	r31, r31
    1b0a:	2a 95       	dec	r18
    1b0c:	e1 f7       	brne	.-8      	; 0x1b06 <lcd_put+0xc>
    1b0e:	e9 0f       	add	r30, r25
    1b10:	f1 1d       	adc	r31, r1
    1b12:	e3 59       	subi	r30, 0x93	; 147
    1b14:	f9 4f       	sbci	r31, 0xF9	; 249
    1b16:	80 83       	st	Z, r24
    1b18:	80 91 8c 0a 	lds	r24, 0x0A8C
    1b1c:	8f 5f       	subi	r24, 0xFF	; 255
    1b1e:	80 93 8c 0a 	sts	0x0A8C, r24
    1b22:	80 91 8c 0a 	lds	r24, 0x0A8C
    1b26:	87 ff       	sbrs	r24, 7
    1b28:	0d c0       	rjmp	.+26     	; 0x1b44 <lcd_put+0x4a>
    1b2a:	10 92 8c 0a 	sts	0x0A8C, r1
    1b2e:	80 91 8d 0a 	lds	r24, 0x0A8D
    1b32:	8f 5f       	subi	r24, 0xFF	; 255
    1b34:	80 93 8d 0a 	sts	0x0A8D, r24
    1b38:	80 91 8d 0a 	lds	r24, 0x0A8D
    1b3c:	88 30       	cpi	r24, 0x08	; 8
    1b3e:	10 f0       	brcs	.+4      	; 0x1b44 <lcd_put+0x4a>
    1b40:	10 92 8d 0a 	sts	0x0A8D, r1
    1b44:	08 95       	ret

00001b46 <lcd_putc>:
    1b46:	ef 92       	push	r14
    1b48:	ff 92       	push	r15
    1b4a:	0f 93       	push	r16
    1b4c:	1f 93       	push	r17
    1b4e:	cf 93       	push	r28
    1b50:	df 93       	push	r29
    1b52:	e6 2e       	mov	r14, r22
    1b54:	20 91 8c 0a 	lds	r18, 0x0A8C
    1b58:	30 e0       	ldi	r19, 0x00	; 0
    1b5a:	2a 37       	cpi	r18, 0x7A	; 122
    1b5c:	31 05       	cpc	r19, r1
    1b5e:	6c f0       	brlt	.+26     	; 0x1b7a <lcd_putc+0x34>
    1b60:	10 92 8c 0a 	sts	0x0A8C, r1
    1b64:	90 91 8d 0a 	lds	r25, 0x0A8D
    1b68:	9f 5f       	subi	r25, 0xFF	; 255
    1b6a:	90 93 8d 0a 	sts	0x0A8D, r25
    1b6e:	90 91 8d 0a 	lds	r25, 0x0A8D
    1b72:	98 30       	cpi	r25, 0x08	; 8
    1b74:	10 f0       	brcs	.+4      	; 0x1b7a <lcd_putc+0x34>
    1b76:	10 92 8d 0a 	sts	0x0A8D, r1
    1b7a:	96 e0       	ldi	r25, 0x06	; 6
    1b7c:	89 9f       	mul	r24, r25
    1b7e:	e0 01       	movw	r28, r0
    1b80:	11 24       	eor	r1, r1
    1b82:	c0 59       	subi	r28, 0x90	; 144
    1b84:	df 4f       	sbci	r29, 0xFF	; 255
    1b86:	8e 01       	movw	r16, r28
    1b88:	ff 24       	eor	r15, r15
    1b8a:	ee 20       	and	r14, r14
    1b8c:	21 f0       	breq	.+8      	; 0x1b96 <lcd_putc+0x50>
    1b8e:	fe 01       	movw	r30, r28
    1b90:	84 91       	lpm	r24, Z+
    1b92:	80 95       	com	r24
    1b94:	02 c0       	rjmp	.+4      	; 0x1b9a <lcd_putc+0x54>
    1b96:	f8 01       	movw	r30, r16
    1b98:	84 91       	lpm	r24, Z+
    1b9a:	0e 94 7d 0d 	call	0x1afa	; 0x1afa <lcd_put>
    1b9e:	f3 94       	inc	r15
    1ba0:	21 96       	adiw	r28, 0x01	; 1
    1ba2:	0f 5f       	subi	r16, 0xFF	; 255
    1ba4:	1f 4f       	sbci	r17, 0xFF	; 255
    1ba6:	ff 2d       	mov	r31, r15
    1ba8:	f6 30       	cpi	r31, 0x06	; 6
    1baa:	79 f7       	brne	.-34     	; 0x1b8a <lcd_putc+0x44>
    1bac:	df 91       	pop	r29
    1bae:	cf 91       	pop	r28
    1bb0:	1f 91       	pop	r17
    1bb2:	0f 91       	pop	r16
    1bb4:	ff 90       	pop	r15
    1bb6:	ef 90       	pop	r14
    1bb8:	08 95       	ret

00001bba <lcd_putstr>:
    1bba:	0f 93       	push	r16
    1bbc:	1f 93       	push	r17
    1bbe:	cf 93       	push	r28
    1bc0:	df 93       	push	r29
    1bc2:	ec 01       	movw	r28, r24
    1bc4:	06 2f       	mov	r16, r22
    1bc6:	10 e0       	ldi	r17, 0x00	; 0
    1bc8:	04 c0       	rjmp	.+8      	; 0x1bd2 <lcd_putstr+0x18>
    1bca:	60 2f       	mov	r22, r16
    1bcc:	0e 94 a3 0d 	call	0x1b46	; 0x1b46 <lcd_putc>
    1bd0:	1f 5f       	subi	r17, 0xFF	; 255
    1bd2:	fe 01       	movw	r30, r28
    1bd4:	e1 0f       	add	r30, r17
    1bd6:	f1 1d       	adc	r31, r1
    1bd8:	80 81       	ld	r24, Z
    1bda:	88 23       	and	r24, r24
    1bdc:	b1 f7       	brne	.-20     	; 0x1bca <lcd_putstr+0x10>
    1bde:	df 91       	pop	r29
    1be0:	cf 91       	pop	r28
    1be2:	1f 91       	pop	r17
    1be4:	0f 91       	pop	r16
    1be6:	08 95       	ret

00001be8 <lcd_putstrbig>:
    1be8:	df 92       	push	r13
    1bea:	ef 92       	push	r14
    1bec:	ff 92       	push	r15
    1bee:	0f 93       	push	r16
    1bf0:	1f 93       	push	r17
    1bf2:	cf 93       	push	r28
    1bf4:	df 93       	push	r29
    1bf6:	a0 91 8d 0a 	lds	r26, 0x0A8D
    1bfa:	00 91 8c 0a 	lds	r16, 0x0A8C
    1bfe:	10 e0       	ldi	r17, 0x00	; 0
    1c00:	44 c0       	rjmp	.+136    	; 0x1c8a <lcd_putstrbig+0xa2>
    1c02:	2b 30       	cpi	r18, 0x0B	; 11
    1c04:	f0 f7       	brcc	.-4      	; 0x1c02 <lcd_putstrbig+0x1a>
    1c06:	43 e3       	ldi	r20, 0x33	; 51
    1c08:	24 9f       	mul	r18, r20
    1c0a:	90 01       	movw	r18, r0
    1c0c:	11 24       	eor	r1, r1
    1c0e:	20 59       	subi	r18, 0x90	; 144
    1c10:	39 4f       	sbci	r19, 0xF9	; 249
    1c12:	60 e0       	ldi	r22, 0x00	; 0
    1c14:	70 e0       	ldi	r23, 0x00	; 0
    1c16:	b0 e0       	ldi	r27, 0x00	; 0
    1c18:	ed 01       	movw	r28, r26
    1c1a:	21 96       	adiw	r28, 0x01	; 1
    1c1c:	f2 e0       	ldi	r31, 0x02	; 2
    1c1e:	ef 2e       	mov	r14, r31
    1c20:	f1 2c       	mov	r15, r1
    1c22:	ea 0e       	add	r14, r26
    1c24:	fb 1e       	adc	r15, r27
    1c26:	40 2f       	mov	r20, r16
    1c28:	46 0f       	add	r20, r22
    1c2a:	50 e0       	ldi	r21, 0x00	; 0
    1c2c:	f9 01       	movw	r30, r18
    1c2e:	d4 90       	lpm	r13, Z+
    1c30:	e3 e0       	ldi	r30, 0x03	; 3
    1c32:	44 0f       	add	r20, r20
    1c34:	55 1f       	adc	r21, r21
    1c36:	ea 95       	dec	r30
    1c38:	e1 f7       	brne	.-8      	; 0x1c32 <lcd_putstrbig+0x4a>
    1c3a:	fa 01       	movw	r30, r20
    1c3c:	ea 0f       	add	r30, r26
    1c3e:	fb 1f       	adc	r31, r27
    1c40:	e3 59       	subi	r30, 0x93	; 147
    1c42:	f9 4f       	sbci	r31, 0xF9	; 249
    1c44:	d0 82       	st	Z, r13
    1c46:	f9 01       	movw	r30, r18
    1c48:	31 96       	adiw	r30, 0x01	; 1
    1c4a:	d4 90       	lpm	r13, Z+
    1c4c:	fa 01       	movw	r30, r20
    1c4e:	ec 0f       	add	r30, r28
    1c50:	fd 1f       	adc	r31, r29
    1c52:	e3 59       	subi	r30, 0x93	; 147
    1c54:	f9 4f       	sbci	r31, 0xF9	; 249
    1c56:	d0 82       	st	Z, r13
    1c58:	f9 01       	movw	r30, r18
    1c5a:	32 96       	adiw	r30, 0x02	; 2
    1c5c:	d4 90       	lpm	r13, Z+
    1c5e:	4e 0d       	add	r20, r14
    1c60:	5f 1d       	adc	r21, r15
    1c62:	43 59       	subi	r20, 0x93	; 147
    1c64:	59 4f       	sbci	r21, 0xF9	; 249
    1c66:	fa 01       	movw	r30, r20
    1c68:	d0 82       	st	Z, r13
    1c6a:	6f 5f       	subi	r22, 0xFF	; 255
    1c6c:	7f 4f       	sbci	r23, 0xFF	; 255
    1c6e:	2d 5f       	subi	r18, 0xFD	; 253
    1c70:	3f 4f       	sbci	r19, 0xFF	; 255
    1c72:	61 31       	cpi	r22, 0x11	; 17
    1c74:	71 05       	cpc	r23, r1
    1c76:	b9 f6       	brne	.-82     	; 0x1c26 <lcd_putstrbig+0x3e>
    1c78:	0f 5e       	subi	r16, 0xEF	; 239
    1c7a:	a0 91 8d 0a 	lds	r26, 0x0A8D
    1c7e:	20 91 8c 0a 	lds	r18, 0x0A8C
    1c82:	20 5f       	subi	r18, 0xF0	; 240
    1c84:	20 93 8c 0a 	sts	0x0A8C, r18
    1c88:	1f 5f       	subi	r17, 0xFF	; 255
    1c8a:	fc 01       	movw	r30, r24
    1c8c:	e1 0f       	add	r30, r17
    1c8e:	f1 1d       	adc	r31, r1
    1c90:	30 81       	ld	r19, Z
    1c92:	23 2f       	mov	r18, r19
    1c94:	20 53       	subi	r18, 0x30	; 48
    1c96:	33 23       	and	r19, r19
    1c98:	09 f0       	breq	.+2      	; 0x1c9c <lcd_putstrbig+0xb4>
    1c9a:	b3 cf       	rjmp	.-154    	; 0x1c02 <lcd_putstrbig+0x1a>
    1c9c:	df 91       	pop	r29
    1c9e:	cf 91       	pop	r28
    1ca0:	1f 91       	pop	r17
    1ca2:	0f 91       	pop	r16
    1ca4:	ff 90       	pop	r15
    1ca6:	ef 90       	pop	r14
    1ca8:	df 90       	pop	r13
    1caa:	08 95       	ret

00001cac <lcd_setpos>:
    1cac:	87 fd       	sbrc	r24, 7
    1cae:	03 c0       	rjmp	.+6      	; 0x1cb6 <lcd_setpos+0xa>
    1cb0:	80 93 8c 0a 	sts	0x0A8C, r24
    1cb4:	02 c0       	rjmp	.+4      	; 0x1cba <lcd_setpos+0xe>
    1cb6:	10 92 8c 0a 	sts	0x0A8C, r1
    1cba:	68 30       	cpi	r22, 0x08	; 8
    1cbc:	18 f4       	brcc	.+6      	; 0x1cc4 <lcd_setpos+0x18>
    1cbe:	60 93 8d 0a 	sts	0x0A8D, r22
    1cc2:	08 95       	ret
    1cc4:	10 92 8d 0a 	sts	0x0A8D, r1
    1cc8:	08 95       	ret

00001cca <lcd_write>:
    1cca:	8b b9       	out	0x0b, r24	; 11
	...
    1cd8:	28 9a       	sbi	0x05, 0	; 5
    1cda:	86 e0       	ldi	r24, 0x06	; 6
    1cdc:	8a 95       	dec	r24
    1cde:	f1 f7       	brne	.-4      	; 0x1cdc <lcd_write+0x12>
    1ce0:	00 c0       	rjmp	.+0      	; 0x1ce2 <lcd_write+0x18>
    1ce2:	28 98       	cbi	0x05, 0	; 5
    1ce4:	86 e0       	ldi	r24, 0x06	; 6
    1ce6:	8a 95       	dec	r24
    1ce8:	f1 f7       	brne	.-4      	; 0x1ce6 <lcd_write+0x1c>
    1cea:	00 c0       	rjmp	.+0      	; 0x1cec <lcd_write+0x22>
    1cec:	08 95       	ret

00001cee <lcd_exec_cmd>:
    1cee:	80 91 d3 05 	lds	r24, 0x05D3
    1cf2:	90 e0       	ldi	r25, 0x00	; 0
    1cf4:	fc 01       	movw	r30, r24
    1cf6:	ee 0f       	add	r30, r30
    1cf8:	ff 1f       	adc	r31, r31
    1cfa:	e8 0f       	add	r30, r24
    1cfc:	f9 1f       	adc	r31, r25
    1cfe:	e2 59       	subi	r30, 0x92	; 146
    1d00:	f5 4f       	sbci	r31, 0xF5	; 245
    1d02:	81 81       	ldd	r24, Z+1	; 0x01
    1d04:	88 23       	and	r24, r24
    1d06:	09 f4       	brne	.+2      	; 0x1d0a <lcd_exec_cmd+0x1c>
    1d08:	9b c0       	rjmp	.+310    	; 0x1e40 <lcd_exec_cmd+0x152>
    1d0a:	80 91 d3 05 	lds	r24, 0x05D3
    1d0e:	90 e0       	ldi	r25, 0x00	; 0
    1d10:	fc 01       	movw	r30, r24
    1d12:	ee 0f       	add	r30, r30
    1d14:	ff 1f       	adc	r31, r31
    1d16:	e8 0f       	add	r30, r24
    1d18:	f9 1f       	adc	r31, r25
    1d1a:	e2 59       	subi	r30, 0x92	; 146
    1d1c:	f5 4f       	sbci	r31, 0xF5	; 245
    1d1e:	80 81       	ld	r24, Z
    1d20:	88 23       	and	r24, r24
    1d22:	19 f0       	breq	.+6      	; 0x1d2a <lcd_exec_cmd+0x3c>
    1d24:	81 30       	cpi	r24, 0x01	; 1
    1d26:	d9 f4       	brne	.+54     	; 0x1d5e <lcd_exec_cmd+0x70>
    1d28:	0d c0       	rjmp	.+26     	; 0x1d44 <lcd_exec_cmd+0x56>
    1d2a:	40 9a       	sbi	0x08, 0	; 8
    1d2c:	41 98       	cbi	0x08, 1	; 8
	...
    1d42:	19 c0       	rjmp	.+50     	; 0x1d76 <lcd_exec_cmd+0x88>
    1d44:	41 9a       	sbi	0x08, 1	; 8
    1d46:	40 98       	cbi	0x08, 0	; 8
	...
    1d5c:	0c c0       	rjmp	.+24     	; 0x1d76 <lcd_exec_cmd+0x88>
    1d5e:	80 91 d3 05 	lds	r24, 0x05D3
    1d62:	90 e0       	ldi	r25, 0x00	; 0
    1d64:	fc 01       	movw	r30, r24
    1d66:	ee 0f       	add	r30, r30
    1d68:	ff 1f       	adc	r31, r31
    1d6a:	e8 0f       	add	r30, r24
    1d6c:	f9 1f       	adc	r31, r25
    1d6e:	e2 59       	subi	r30, 0x92	; 146
    1d70:	f5 4f       	sbci	r31, 0xF5	; 245
    1d72:	11 82       	std	Z+1, r1	; 0x01
    1d74:	08 95       	ret
    1d76:	46 98       	cbi	0x08, 6	; 8
	...
    1d8c:	47 98       	cbi	0x08, 7	; 8
	...
    1da2:	80 91 d3 05 	lds	r24, 0x05D3
    1da6:	90 e0       	ldi	r25, 0x00	; 0
    1da8:	fc 01       	movw	r30, r24
    1daa:	ee 0f       	add	r30, r30
    1dac:	ff 1f       	adc	r31, r31
    1dae:	e8 0f       	add	r30, r24
    1db0:	f9 1f       	adc	r31, r25
    1db2:	e2 59       	subi	r30, 0x92	; 146
    1db4:	f5 4f       	sbci	r31, 0xF5	; 245
    1db6:	81 81       	ldd	r24, Z+1	; 0x01
    1db8:	82 30       	cpi	r24, 0x02	; 2
    1dba:	f1 f0       	breq	.+60     	; 0x1df8 <lcd_exec_cmd+0x10a>
    1dbc:	83 30       	cpi	r24, 0x03	; 3
    1dbe:	79 f0       	breq	.+30     	; 0x1dde <lcd_exec_cmd+0xf0>
    1dc0:	81 30       	cpi	r24, 0x01	; 1
    1dc2:	41 f5       	brne	.+80     	; 0x1e14 <lcd_exec_cmd+0x126>
    1dc4:	80 91 d3 05 	lds	r24, 0x05D3
    1dc8:	90 e0       	ldi	r25, 0x00	; 0
    1dca:	fc 01       	movw	r30, r24
    1dcc:	ee 0f       	add	r30, r30
    1dce:	ff 1f       	adc	r31, r31
    1dd0:	e8 0f       	add	r30, r24
    1dd2:	f9 1f       	adc	r31, r25
    1dd4:	e2 59       	subi	r30, 0x92	; 146
    1dd6:	f5 4f       	sbci	r31, 0xF5	; 245
    1dd8:	82 81       	ldd	r24, Z+2	; 0x02
    1dda:	80 64       	ori	r24, 0x40	; 64
    1ddc:	19 c0       	rjmp	.+50     	; 0x1e10 <lcd_exec_cmd+0x122>
    1dde:	80 91 d3 05 	lds	r24, 0x05D3
    1de2:	90 e0       	ldi	r25, 0x00	; 0
    1de4:	fc 01       	movw	r30, r24
    1de6:	ee 0f       	add	r30, r30
    1de8:	ff 1f       	adc	r31, r31
    1dea:	e8 0f       	add	r30, r24
    1dec:	f9 1f       	adc	r31, r25
    1dee:	e2 59       	subi	r30, 0x92	; 146
    1df0:	f5 4f       	sbci	r31, 0xF5	; 245
    1df2:	82 81       	ldd	r24, Z+2	; 0x02
    1df4:	80 6c       	ori	r24, 0xC0	; 192
    1df6:	0c c0       	rjmp	.+24     	; 0x1e10 <lcd_exec_cmd+0x122>
    1df8:	80 91 d3 05 	lds	r24, 0x05D3
    1dfc:	90 e0       	ldi	r25, 0x00	; 0
    1dfe:	fc 01       	movw	r30, r24
    1e00:	ee 0f       	add	r30, r30
    1e02:	ff 1f       	adc	r31, r31
    1e04:	e8 0f       	add	r30, r24
    1e06:	f9 1f       	adc	r31, r25
    1e08:	e2 59       	subi	r30, 0x92	; 146
    1e0a:	f5 4f       	sbci	r31, 0xF5	; 245
    1e0c:	82 81       	ldd	r24, Z+2	; 0x02
    1e0e:	88 6b       	ori	r24, 0xB8	; 184
    1e10:	0e 94 65 0e 	call	0x1cca	; 0x1cca <lcd_write>
    1e14:	80 91 d3 05 	lds	r24, 0x05D3
    1e18:	90 e0       	ldi	r25, 0x00	; 0
    1e1a:	fc 01       	movw	r30, r24
    1e1c:	ee 0f       	add	r30, r30
    1e1e:	ff 1f       	adc	r31, r31
    1e20:	e8 0f       	add	r30, r24
    1e22:	f9 1f       	adc	r31, r25
    1e24:	e2 59       	subi	r30, 0x92	; 146
    1e26:	f5 4f       	sbci	r31, 0xF5	; 245
    1e28:	11 82       	std	Z+1, r1	; 0x01
    1e2a:	80 91 d3 05 	lds	r24, 0x05D3
    1e2e:	8f 5f       	subi	r24, 0xFF	; 255
    1e30:	80 93 d3 05 	sts	0x05D3, r24
    1e34:	80 91 d3 05 	lds	r24, 0x05D3
    1e38:	8a 30       	cpi	r24, 0x0A	; 10
    1e3a:	10 f0       	brcs	.+4      	; 0x1e40 <lcd_exec_cmd+0x152>
    1e3c:	10 92 d3 05 	sts	0x05D3, r1
    1e40:	08 95       	ret

00001e42 <lcd_is_busy>:
    1e42:	1a b8       	out	0x0a, r1	; 10
    1e44:	46 98       	cbi	0x08, 6	; 8
	...
    1e5a:	47 9a       	sbi	0x08, 7	; 8
	...
    1e7c:	28 9a       	sbi	0x05, 0	; 5
    1e7e:	86 e0       	ldi	r24, 0x06	; 6
    1e80:	8a 95       	dec	r24
    1e82:	f1 f7       	brne	.-4      	; 0x1e80 <lcd_is_busy+0x3e>
    1e84:	00 c0       	rjmp	.+0      	; 0x1e86 <lcd_is_busy+0x44>
    1e86:	89 b1       	in	r24, 0x09	; 9
    1e88:	28 98       	cbi	0x05, 0	; 5
    1e8a:	96 e0       	ldi	r25, 0x06	; 6
    1e8c:	9a 95       	dec	r25
    1e8e:	f1 f7       	brne	.-4      	; 0x1e8c <lcd_is_busy+0x4a>
    1e90:	00 c0       	rjmp	.+0      	; 0x1e92 <lcd_is_busy+0x50>
    1e92:	9f ef       	ldi	r25, 0xFF	; 255
    1e94:	9a b9       	out	0x0a, r25	; 10
    1e96:	80 78       	andi	r24, 0x80	; 128
    1e98:	08 95       	ret

00001e9a <lcd_cs1_is_busy>:
    1e9a:	40 9a       	sbi	0x08, 0	; 8
    1e9c:	41 98       	cbi	0x08, 1	; 8
	...
    1eb2:	0e 94 21 0f 	call	0x1e42	; 0x1e42 <lcd_is_busy>
    1eb6:	08 95       	ret

00001eb8 <lcd_cs2_is_busy>:
    1eb8:	41 9a       	sbi	0x08, 1	; 8
    1eba:	40 98       	cbi	0x08, 0	; 8
	...
    1ed0:	0e 94 21 0f 	call	0x1e42	; 0x1e42 <lcd_is_busy>
    1ed4:	08 95       	ret

00001ed6 <lcd_wait_busy_12>:
    1ed6:	0e 94 4d 0f 	call	0x1e9a	; 0x1e9a <lcd_cs1_is_busy>
    1eda:	88 23       	and	r24, r24
    1edc:	e1 f7       	brne	.-8      	; 0x1ed6 <lcd_wait_busy_12>
    1ede:	0e 94 5c 0f 	call	0x1eb8	; 0x1eb8 <lcd_cs2_is_busy>
    1ee2:	88 23       	and	r24, r24
    1ee4:	c1 f7       	brne	.-16     	; 0x1ed6 <lcd_wait_busy_12>
    1ee6:	08 95       	ret

00001ee8 <lcd_off>:
    1ee8:	0e 94 6b 0f 	call	0x1ed6	; 0x1ed6 <lcd_wait_busy_12>
    1eec:	40 9a       	sbi	0x08, 0	; 8
    1eee:	41 9a       	sbi	0x08, 1	; 8
	...
    1f04:	46 98       	cbi	0x08, 6	; 8
	...
    1f1a:	47 98       	cbi	0x08, 7	; 8
	...
    1f30:	8e e3       	ldi	r24, 0x3E	; 62
    1f32:	0e 94 65 0e 	call	0x1cca	; 0x1cca <lcd_write>
    1f36:	08 95       	ret

00001f38 <lcd_init>:
    1f38:	29 98       	cbi	0x05, 1	; 5
    1f3a:	8f e7       	ldi	r24, 0x7F	; 127
    1f3c:	9a e1       	ldi	r25, 0x1A	; 26
    1f3e:	a6 e0       	ldi	r26, 0x06	; 6
    1f40:	81 50       	subi	r24, 0x01	; 1
    1f42:	90 40       	sbci	r25, 0x00	; 0
    1f44:	a0 40       	sbci	r26, 0x00	; 0
    1f46:	e1 f7       	brne	.-8      	; 0x1f40 <lcd_init+0x8>
    1f48:	00 c0       	rjmp	.+0      	; 0x1f4a <lcd_init+0x12>
    1f4a:	00 00       	nop
    1f4c:	29 9a       	sbi	0x05, 1	; 5
    1f4e:	1a b8       	out	0x0a, r1	; 10
    1f50:	40 9a       	sbi	0x08, 0	; 8
    1f52:	41 98       	cbi	0x08, 1	; 8
	...
    1f68:	46 98       	cbi	0x08, 6	; 8
	...
    1f7e:	47 9a       	sbi	0x08, 7	; 8
	...
    1f94:	28 9a       	sbi	0x05, 0	; 5
    1f96:	96 e0       	ldi	r25, 0x06	; 6
    1f98:	9a 95       	dec	r25
    1f9a:	f1 f7       	brne	.-4      	; 0x1f98 <lcd_init+0x60>
    1f9c:	00 c0       	rjmp	.+0      	; 0x1f9e <lcd_init+0x66>
    1f9e:	89 b1       	in	r24, 0x09	; 9
    1fa0:	28 98       	cbi	0x05, 0	; 5
    1fa2:	a6 e0       	ldi	r26, 0x06	; 6
    1fa4:	aa 95       	dec	r26
    1fa6:	f1 f7       	brne	.-4      	; 0x1fa4 <lcd_init+0x6c>
    1fa8:	00 c0       	rjmp	.+0      	; 0x1faa <lcd_init+0x72>
    1faa:	41 9a       	sbi	0x08, 1	; 8
    1fac:	40 98       	cbi	0x08, 0	; 8
	...
    1fc2:	46 98       	cbi	0x08, 6	; 8
	...
    1fd8:	47 9a       	sbi	0x08, 7	; 8
	...
    1fee:	28 9a       	sbi	0x05, 0	; 5
    1ff0:	b6 e0       	ldi	r27, 0x06	; 6
    1ff2:	ba 95       	dec	r27
    1ff4:	f1 f7       	brne	.-4      	; 0x1ff2 <lcd_init+0xba>
    1ff6:	00 c0       	rjmp	.+0      	; 0x1ff8 <lcd_init+0xc0>
    1ff8:	99 b1       	in	r25, 0x09	; 9
    1ffa:	28 98       	cbi	0x05, 0	; 5
    1ffc:	26 e0       	ldi	r18, 0x06	; 6
    1ffe:	2a 95       	dec	r18
    2000:	f1 f7       	brne	.-4      	; 0x1ffe <lcd_init+0xc6>
    2002:	00 c0       	rjmp	.+0      	; 0x2004 <lcd_init+0xcc>
    2004:	89 2b       	or	r24, r25
    2006:	84 fd       	sbrc	r24, 4
    2008:	a3 cf       	rjmp	.-186    	; 0x1f50 <lcd_init+0x18>
    200a:	8f ef       	ldi	r24, 0xFF	; 255
    200c:	8a b9       	out	0x0a, r24	; 10
    200e:	0e 94 6b 0f 	call	0x1ed6	; 0x1ed6 <lcd_wait_busy_12>
    2012:	40 9a       	sbi	0x08, 0	; 8
    2014:	41 9a       	sbi	0x08, 1	; 8
	...
    202a:	46 98       	cbi	0x08, 6	; 8
	...
    2040:	47 98       	cbi	0x08, 7	; 8
	...
    2056:	8f e3       	ldi	r24, 0x3F	; 63
    2058:	0e 94 65 0e 	call	0x1cca	; 0x1cca <lcd_write>
    205c:	87 e8       	ldi	r24, 0x87	; 135
    205e:	93 e1       	ldi	r25, 0x13	; 19
    2060:	01 97       	sbiw	r24, 0x01	; 1
    2062:	f1 f7       	brne	.-4      	; 0x2060 <lcd_init+0x128>
    2064:	00 c0       	rjmp	.+0      	; 0x2066 <lcd_init+0x12e>
    2066:	00 00       	nop
    2068:	0e 94 6b 0f 	call	0x1ed6	; 0x1ed6 <lcd_wait_busy_12>
    206c:	40 9a       	sbi	0x08, 0	; 8
    206e:	41 9a       	sbi	0x08, 1	; 8
	...
    2084:	46 98       	cbi	0x08, 6	; 8
	...
    209a:	47 98       	cbi	0x08, 7	; 8
	...
    20b0:	80 ec       	ldi	r24, 0xC0	; 192
    20b2:	0e 94 65 0e 	call	0x1cca	; 0x1cca <lcd_write>
    20b6:	a7 e8       	ldi	r26, 0x87	; 135
    20b8:	b3 e1       	ldi	r27, 0x13	; 19
    20ba:	11 97       	sbiw	r26, 0x01	; 1
    20bc:	f1 f7       	brne	.-4      	; 0x20ba <lcd_init+0x182>
    20be:	00 c0       	rjmp	.+0      	; 0x20c0 <lcd_init+0x188>
    20c0:	00 00       	nop
    20c2:	0e 94 6b 0f 	call	0x1ed6	; 0x1ed6 <lcd_wait_busy_12>
    20c6:	40 9a       	sbi	0x08, 0	; 8
    20c8:	41 9a       	sbi	0x08, 1	; 8
	...
    20de:	46 98       	cbi	0x08, 6	; 8
	...
    20f4:	47 98       	cbi	0x08, 7	; 8
	...
    210a:	80 e4       	ldi	r24, 0x40	; 64
    210c:	0e 94 65 0e 	call	0x1cca	; 0x1cca <lcd_write>
    2110:	87 e8       	ldi	r24, 0x87	; 135
    2112:	93 e1       	ldi	r25, 0x13	; 19
    2114:	01 97       	sbiw	r24, 0x01	; 1
    2116:	f1 f7       	brne	.-4      	; 0x2114 <lcd_init+0x1dc>
    2118:	00 c0       	rjmp	.+0      	; 0x211a <lcd_init+0x1e2>
    211a:	00 00       	nop
    211c:	0e 94 6b 0f 	call	0x1ed6	; 0x1ed6 <lcd_wait_busy_12>
    2120:	40 9a       	sbi	0x08, 0	; 8
    2122:	41 9a       	sbi	0x08, 1	; 8
	...
    2138:	46 98       	cbi	0x08, 6	; 8
	...
    214e:	47 98       	cbi	0x08, 7	; 8
	...
    2164:	88 eb       	ldi	r24, 0xB8	; 184
    2166:	0e 94 65 0e 	call	0x1cca	; 0x1cca <lcd_write>
    216a:	a7 e8       	ldi	r26, 0x87	; 135
    216c:	b3 e1       	ldi	r27, 0x13	; 19
    216e:	11 97       	sbiw	r26, 0x01	; 1
    2170:	f1 f7       	brne	.-4      	; 0x216e <lcd_init+0x236>
    2172:	00 c0       	rjmp	.+0      	; 0x2174 <lcd_init+0x23c>
    2174:	00 00       	nop
    2176:	40 98       	cbi	0x08, 0	; 8
    2178:	41 98       	cbi	0x08, 1	; 8
	...
    218e:	10 92 6d 0a 	sts	0x0A6D, r1
    2192:	10 92 d2 05 	sts	0x05D2, r1
    2196:	10 92 d3 05 	sts	0x05D3, r1
    219a:	ef e6       	ldi	r30, 0x6F	; 111
    219c:	fa e0       	ldi	r31, 0x0A	; 10
    219e:	10 82       	st	Z, r1
    21a0:	33 96       	adiw	r30, 0x03	; 3
    21a2:	ba e0       	ldi	r27, 0x0A	; 10
    21a4:	ed 38       	cpi	r30, 0x8D	; 141
    21a6:	fb 07       	cpc	r31, r27
    21a8:	d1 f7       	brne	.-12     	; 0x219e <lcd_init+0x266>
    21aa:	08 95       	ret

000021ac <lcd_step>:
    21ac:	cf 93       	push	r28
    21ae:	df 93       	push	r29
    21b0:	c0 e0       	ldi	r28, 0x00	; 0
    21b2:	d0 e0       	ldi	r29, 0x00	; 0
    21b4:	80 91 d3 05 	lds	r24, 0x05D3
    21b8:	90 e0       	ldi	r25, 0x00	; 0
    21ba:	fc 01       	movw	r30, r24
    21bc:	ee 0f       	add	r30, r30
    21be:	ff 1f       	adc	r31, r31
    21c0:	e8 0f       	add	r30, r24
    21c2:	f9 1f       	adc	r31, r25
    21c4:	e2 59       	subi	r30, 0x92	; 146
    21c6:	f5 4f       	sbci	r31, 0xF5	; 245
    21c8:	81 81       	ldd	r24, Z+1	; 0x01
    21ca:	88 23       	and	r24, r24
    21cc:	09 f4       	brne	.+2      	; 0x21d0 <lcd_step+0x24>
    21ce:	2f c0       	rjmp	.+94     	; 0x222e <lcd_step+0x82>
    21d0:	80 91 d3 05 	lds	r24, 0x05D3
    21d4:	90 e0       	ldi	r25, 0x00	; 0
    21d6:	fc 01       	movw	r30, r24
    21d8:	ee 0f       	add	r30, r30
    21da:	ff 1f       	adc	r31, r31
    21dc:	e8 0f       	add	r30, r24
    21de:	f9 1f       	adc	r31, r25
    21e0:	e2 59       	subi	r30, 0x92	; 146
    21e2:	f5 4f       	sbci	r31, 0xF5	; 245
    21e4:	80 81       	ld	r24, Z
    21e6:	88 23       	and	r24, r24
    21e8:	69 f4       	brne	.+26     	; 0x2204 <lcd_step+0x58>
    21ea:	40 9a       	sbi	0x08, 0	; 8
    21ec:	41 98       	cbi	0x08, 1	; 8
	...
    2202:	0c c0       	rjmp	.+24     	; 0x221c <lcd_step+0x70>
    2204:	41 9a       	sbi	0x08, 1	; 8
    2206:	40 98       	cbi	0x08, 0	; 8
	...
    221c:	0e 94 21 0f 	call	0x1e42	; 0x1e42 <lcd_is_busy>
    2220:	2f 96       	adiw	r28, 0x0f	; 15
    2222:	88 23       	and	r24, r24
    2224:	09 f0       	breq	.+2      	; 0x2228 <lcd_step+0x7c>
    2226:	df c0       	rjmp	.+446    	; 0x23e6 <lcd_step+0x23a>
    2228:	0e 94 77 0e 	call	0x1cee	; 0x1cee <lcd_exec_cmd>
    222c:	dc c0       	rjmp	.+440    	; 0x23e6 <lcd_step+0x23a>
    222e:	80 91 d4 05 	lds	r24, 0x05D4
    2232:	88 23       	and	r24, r24
    2234:	09 f0       	breq	.+2      	; 0x2238 <lcd_step+0x8c>
    2236:	66 c0       	rjmp	.+204    	; 0x2304 <lcd_step+0x158>
    2238:	80 91 6d 0a 	lds	r24, 0x0A6D
    223c:	80 fd       	sbrc	r24, 0
    223e:	04 c0       	rjmp	.+8      	; 0x2248 <lcd_step+0x9c>
    2240:	81 e0       	ldi	r24, 0x01	; 1
    2242:	80 93 d4 05 	sts	0x05D4, r24
    2246:	d3 c0       	rjmp	.+422    	; 0x23ee <lcd_step+0x242>
    2248:	0e 94 4d 0f 	call	0x1e9a	; 0x1e9a <lcd_cs1_is_busy>
    224c:	88 23       	and	r24, r24
    224e:	09 f0       	breq	.+2      	; 0x2252 <lcd_step+0xa6>
    2250:	67 c0       	rjmp	.+206    	; 0x2320 <lcd_step+0x174>
    2252:	40 9a       	sbi	0x08, 0	; 8
    2254:	41 98       	cbi	0x08, 1	; 8
	...
    226a:	46 9a       	sbi	0x08, 6	; 8
	...
    2280:	47 98       	cbi	0x08, 7	; 8
	...
    2296:	e0 91 d6 05 	lds	r30, 0x05D6
    229a:	f0 e0       	ldi	r31, 0x00	; 0
    229c:	80 91 d5 05 	lds	r24, 0x05D5
    22a0:	b3 e0       	ldi	r27, 0x03	; 3
    22a2:	ee 0f       	add	r30, r30
    22a4:	ff 1f       	adc	r31, r31
    22a6:	ba 95       	dec	r27
    22a8:	e1 f7       	brne	.-8      	; 0x22a2 <lcd_step+0xf6>
    22aa:	e8 0f       	add	r30, r24
    22ac:	f1 1d       	adc	r31, r1
    22ae:	e3 59       	subi	r30, 0x93	; 147
    22b0:	f9 4f       	sbci	r31, 0xF9	; 249
    22b2:	80 81       	ld	r24, Z
    22b4:	0e 94 65 0e 	call	0x1cca	; 0x1cca <lcd_write>
    22b8:	64 96       	adiw	r28, 0x14	; 20
    22ba:	80 91 d6 05 	lds	r24, 0x05D6
    22be:	8f 5f       	subi	r24, 0xFF	; 255
    22c0:	80 93 d6 05 	sts	0x05D6, r24
    22c4:	80 34       	cpi	r24, 0x40	; 64
    22c6:	08 f4       	brcc	.+2      	; 0x22ca <lcd_step+0x11e>
    22c8:	8e c0       	rjmp	.+284    	; 0x23e6 <lcd_step+0x23a>
    22ca:	10 92 d6 05 	sts	0x05D6, r1
    22ce:	80 91 d5 05 	lds	r24, 0x05D5
    22d2:	8f 5f       	subi	r24, 0xFF	; 255
    22d4:	80 93 d5 05 	sts	0x05D5, r24
    22d8:	88 30       	cpi	r24, 0x08	; 8
    22da:	90 f0       	brcs	.+36     	; 0x2300 <lcd_step+0x154>
    22dc:	10 92 d5 05 	sts	0x05D5, r1
    22e0:	81 e0       	ldi	r24, 0x01	; 1
    22e2:	80 93 d4 05 	sts	0x05D4, r24
    22e6:	80 91 6d 0a 	lds	r24, 0x0A6D
    22ea:	84 ff       	sbrs	r24, 4
    22ec:	04 c0       	rjmp	.+8      	; 0x22f6 <lcd_step+0x14a>
    22ee:	80 91 6d 0a 	lds	r24, 0x0A6D
    22f2:	8f 7e       	andi	r24, 0xEF	; 239
    22f4:	03 c0       	rjmp	.+6      	; 0x22fc <lcd_step+0x150>
    22f6:	80 91 6d 0a 	lds	r24, 0x0A6D
    22fa:	8e 7f       	andi	r24, 0xFE	; 254
    22fc:	80 93 6d 0a 	sts	0x0A6D, r24
    2300:	80 e0       	ldi	r24, 0x00	; 0
    2302:	68 c0       	rjmp	.+208    	; 0x23d4 <lcd_step+0x228>
    2304:	81 30       	cpi	r24, 0x01	; 1
    2306:	09 f0       	breq	.+2      	; 0x230a <lcd_step+0x15e>
    2308:	6c c0       	rjmp	.+216    	; 0x23e2 <lcd_step+0x236>
    230a:	80 91 6d 0a 	lds	r24, 0x0A6D
    230e:	81 fd       	sbrc	r24, 1
    2310:	03 c0       	rjmp	.+6      	; 0x2318 <lcd_step+0x16c>
    2312:	10 92 d4 05 	sts	0x05D4, r1
    2316:	6b c0       	rjmp	.+214    	; 0x23ee <lcd_step+0x242>
    2318:	0e 94 5c 0f 	call	0x1eb8	; 0x1eb8 <lcd_cs2_is_busy>
    231c:	88 23       	and	r24, r24
    231e:	11 f0       	breq	.+4      	; 0x2324 <lcd_step+0x178>
    2320:	2f 96       	adiw	r28, 0x0f	; 15
    2322:	61 c0       	rjmp	.+194    	; 0x23e6 <lcd_step+0x23a>
    2324:	41 9a       	sbi	0x08, 1	; 8
    2326:	40 98       	cbi	0x08, 0	; 8
	...
    233c:	46 9a       	sbi	0x08, 6	; 8
	...
    2352:	47 98       	cbi	0x08, 7	; 8
	...
    2368:	e0 91 d6 05 	lds	r30, 0x05D6
    236c:	f0 e0       	ldi	r31, 0x00	; 0
    236e:	e0 5c       	subi	r30, 0xC0	; 192
    2370:	ff 4f       	sbci	r31, 0xFF	; 255
    2372:	80 91 d5 05 	lds	r24, 0x05D5
    2376:	a3 e0       	ldi	r26, 0x03	; 3
    2378:	ee 0f       	add	r30, r30
    237a:	ff 1f       	adc	r31, r31
    237c:	aa 95       	dec	r26
    237e:	e1 f7       	brne	.-8      	; 0x2378 <lcd_step+0x1cc>
    2380:	e8 0f       	add	r30, r24
    2382:	f1 1d       	adc	r31, r1
    2384:	e3 59       	subi	r30, 0x93	; 147
    2386:	f9 4f       	sbci	r31, 0xF9	; 249
    2388:	80 81       	ld	r24, Z
    238a:	0e 94 65 0e 	call	0x1cca	; 0x1cca <lcd_write>
    238e:	64 96       	adiw	r28, 0x14	; 20
    2390:	80 91 d6 05 	lds	r24, 0x05D6
    2394:	8f 5f       	subi	r24, 0xFF	; 255
    2396:	80 93 d6 05 	sts	0x05D6, r24
    239a:	80 34       	cpi	r24, 0x40	; 64
    239c:	20 f1       	brcs	.+72     	; 0x23e6 <lcd_step+0x23a>
    239e:	10 92 d6 05 	sts	0x05D6, r1
    23a2:	80 91 d5 05 	lds	r24, 0x05D5
    23a6:	8f 5f       	subi	r24, 0xFF	; 255
    23a8:	80 93 d5 05 	sts	0x05D5, r24
    23ac:	88 30       	cpi	r24, 0x08	; 8
    23ae:	88 f0       	brcs	.+34     	; 0x23d2 <lcd_step+0x226>
    23b0:	10 92 d5 05 	sts	0x05D5, r1
    23b4:	10 92 d4 05 	sts	0x05D4, r1
    23b8:	80 91 6d 0a 	lds	r24, 0x0A6D
    23bc:	85 ff       	sbrs	r24, 5
    23be:	04 c0       	rjmp	.+8      	; 0x23c8 <lcd_step+0x21c>
    23c0:	80 91 6d 0a 	lds	r24, 0x0A6D
    23c4:	8f 7d       	andi	r24, 0xDF	; 223
    23c6:	03 c0       	rjmp	.+6      	; 0x23ce <lcd_step+0x222>
    23c8:	80 91 6d 0a 	lds	r24, 0x0A6D
    23cc:	8d 7f       	andi	r24, 0xFD	; 253
    23ce:	80 93 6d 0a 	sts	0x0A6D, r24
    23d2:	81 e0       	ldi	r24, 0x01	; 1
    23d4:	62 e0       	ldi	r22, 0x02	; 2
    23d6:	40 91 d5 05 	lds	r20, 0x05D5
    23da:	0e 94 45 0d 	call	0x1a8a	; 0x1a8a <lcd_add_cmd>
    23de:	25 96       	adiw	r28, 0x05	; 5
    23e0:	02 c0       	rjmp	.+4      	; 0x23e6 <lcd_step+0x23a>
    23e2:	10 92 d4 05 	sts	0x05D4, r1
    23e6:	c2 33       	cpi	r28, 0x32	; 50
    23e8:	d1 05       	cpc	r29, r1
    23ea:	08 f4       	brcc	.+2      	; 0x23ee <lcd_step+0x242>
    23ec:	e3 ce       	rjmp	.-570    	; 0x21b4 <lcd_step+0x8>
    23ee:	df 91       	pop	r29
    23f0:	cf 91       	pop	r28
    23f2:	08 95       	ret

000023f4 <lcd_need_redraw>:
    23f4:	80 91 6d 0a 	lds	r24, 0x0A6D
    23f8:	90 91 6d 0a 	lds	r25, 0x0A6D
    23fc:	92 70       	andi	r25, 0x02	; 2
    23fe:	81 70       	andi	r24, 0x01	; 1
    2400:	89 2b       	or	r24, r25
    2402:	08 95       	ret

00002404 <lcd_test_font>:
    2404:	ef 92       	push	r14
    2406:	ff 92       	push	r15
    2408:	1f 93       	push	r17
    240a:	df 93       	push	r29
    240c:	cf 93       	push	r28
    240e:	0f 92       	push	r0
    2410:	cd b7       	in	r28, 0x3d	; 61
    2412:	de b7       	in	r29, 0x3e	; 62
    2414:	89 83       	std	Y+1, r24	; 0x01
    2416:	0e 94 c1 0c 	call	0x1982	; 0x1982 <lcd_clear>
    241a:	89 81       	ldd	r24, Y+1	; 0x01
    241c:	e8 2e       	mov	r14, r24
    241e:	ff 24       	eor	r15, r15
    2420:	10 e0       	ldi	r17, 0x00	; 0
    2422:	80 91 8c 0a 	lds	r24, 0x0A8C
    2426:	90 e0       	ldi	r25, 0x00	; 0
    2428:	8a 37       	cpi	r24, 0x7A	; 122
    242a:	91 05       	cpc	r25, r1
    242c:	3c f0       	brlt	.+14     	; 0x243c <lcd_test_font+0x38>
    242e:	1f 5f       	subi	r17, 0xFF	; 255
    2430:	18 30       	cpi	r17, 0x08	; 8
    2432:	80 f4       	brcc	.+32     	; 0x2454 <lcd_test_font+0x50>
    2434:	80 e0       	ldi	r24, 0x00	; 0
    2436:	61 2f       	mov	r22, r17
    2438:	0e 94 56 0e 	call	0x1cac	; 0x1cac <lcd_setpos>
    243c:	8e 2d       	mov	r24, r14
    243e:	60 e0       	ldi	r22, 0x00	; 0
    2440:	0e 94 a3 0d 	call	0x1b46	; 0x1b46 <lcd_putc>
    2444:	08 94       	sec
    2446:	e1 1c       	adc	r14, r1
    2448:	f1 1c       	adc	r15, r1
    244a:	20 e0       	ldi	r18, 0x00	; 0
    244c:	e2 16       	cp	r14, r18
    244e:	21 e0       	ldi	r18, 0x01	; 1
    2450:	f2 06       	cpc	r15, r18
    2452:	39 f7       	brne	.-50     	; 0x2422 <lcd_test_font+0x1e>
    2454:	0f 90       	pop	r0
    2456:	cf 91       	pop	r28
    2458:	df 91       	pop	r29
    245a:	1f 91       	pop	r17
    245c:	ff 90       	pop	r15
    245e:	ef 90       	pop	r14
    2460:	08 95       	ret

00002462 <lcd_show_gecco>:
    2462:	cf 93       	push	r28
    2464:	df 93       	push	r29
    2466:	20 e4       	ldi	r18, 0x40	; 64
    2468:	30 e0       	ldi	r19, 0x00	; 0
    246a:	40 e0       	ldi	r20, 0x00	; 0
    246c:	50 e0       	ldi	r21, 0x00	; 0
    246e:	a0 e6       	ldi	r26, 0x60	; 96
    2470:	b0 e0       	ldi	r27, 0x00	; 0
    2472:	15 c0       	rjmp	.+42     	; 0x249e <lcd_show_gecco+0x3c>
    2474:	fc 01       	movw	r30, r24
    2476:	e4 0f       	add	r30, r20
    2478:	f5 1f       	adc	r31, r21
    247a:	ef 55       	subi	r30, 0x5F	; 95
    247c:	f7 4f       	sbci	r31, 0xF7	; 247
    247e:	e4 91       	lpm	r30, Z+
    2480:	eb 01       	movw	r28, r22
    2482:	c8 0f       	add	r28, r24
    2484:	d9 1f       	adc	r29, r25
    2486:	c3 59       	subi	r28, 0x93	; 147
    2488:	d9 4f       	sbci	r29, 0xF9	; 249
    248a:	e8 83       	st	Y, r30
    248c:	01 96       	adiw	r24, 0x01	; 1
    248e:	88 30       	cpi	r24, 0x08	; 8
    2490:	91 05       	cpc	r25, r1
    2492:	81 f7       	brne	.-32     	; 0x2474 <lcd_show_gecco+0x12>
    2494:	48 5f       	subi	r20, 0xF8	; 248
    2496:	5f 4f       	sbci	r21, 0xFF	; 255
    2498:	21 50       	subi	r18, 0x01	; 1
    249a:	30 40       	sbci	r19, 0x00	; 0
    249c:	59 f0       	breq	.+22     	; 0x24b4 <lcd_show_gecco+0x52>
    249e:	80 e0       	ldi	r24, 0x00	; 0
    24a0:	90 e0       	ldi	r25, 0x00	; 0
    24a2:	bd 01       	movw	r22, r26
    24a4:	62 1b       	sub	r22, r18
    24a6:	73 0b       	sbc	r23, r19
    24a8:	e3 e0       	ldi	r30, 0x03	; 3
    24aa:	66 0f       	add	r22, r22
    24ac:	77 1f       	adc	r23, r23
    24ae:	ea 95       	dec	r30
    24b0:	e1 f7       	brne	.-8      	; 0x24aa <lcd_show_gecco+0x48>
    24b2:	e0 cf       	rjmp	.-64     	; 0x2474 <lcd_show_gecco+0x12>
    24b4:	0e 94 0e 0d 	call	0x1a1c	; 0x1a1c <lcd_redraw>
    24b8:	02 c0       	rjmp	.+4      	; 0x24be <lcd_show_gecco+0x5c>
    24ba:	0e 94 d6 10 	call	0x21ac	; 0x21ac <lcd_step>
    24be:	80 91 6d 0a 	lds	r24, 0x0A6D
    24c2:	80 fd       	sbrc	r24, 0
    24c4:	fa cf       	rjmp	.-12     	; 0x24ba <lcd_show_gecco+0x58>
    24c6:	80 91 6d 0a 	lds	r24, 0x0A6D
    24ca:	81 fd       	sbrc	r24, 1
    24cc:	f6 cf       	rjmp	.-20     	; 0x24ba <lcd_show_gecco+0x58>
    24ce:	df 91       	pop	r29
    24d0:	cf 91       	pop	r28
    24d2:	08 95       	ret

000024d4 <lcd_reset_disp>:
    24d4:	80 e0       	ldi	r24, 0x00	; 0
    24d6:	63 e0       	ldi	r22, 0x03	; 3
    24d8:	40 e0       	ldi	r20, 0x00	; 0
    24da:	0e 94 45 0d 	call	0x1a8a	; 0x1a8a <lcd_add_cmd>
    24de:	81 e0       	ldi	r24, 0x01	; 1
    24e0:	63 e0       	ldi	r22, 0x03	; 3
    24e2:	40 e0       	ldi	r20, 0x00	; 0
    24e4:	0e 94 45 0d 	call	0x1a8a	; 0x1a8a <lcd_add_cmd>
    24e8:	08 95       	ret

000024ea <led_schreibe_r>:
    24ea:	40 e0       	ldi	r20, 0x00	; 0
    24ec:	90 e0       	ldi	r25, 0x00	; 0
    24ee:	29 2f       	mov	r18, r25
    24f0:	2f 70       	andi	r18, 0x0F	; 15
    24f2:	21 f4       	brne	.+8      	; 0x24fc <led_schreibe_r+0x12>
    24f4:	2d 98       	cbi	0x05, 5	; 5
    24f6:	2f 9a       	sbi	0x05, 7	; 5
    24f8:	2f 98       	cbi	0x05, 7	; 5
    24fa:	12 c0       	rjmp	.+36     	; 0x2520 <led_schreibe_r+0x36>
    24fc:	24 2f       	mov	r18, r20
    24fe:	30 e0       	ldi	r19, 0x00	; 0
    2500:	f9 01       	movw	r30, r18
    2502:	ee 0f       	add	r30, r30
    2504:	ff 1f       	adc	r31, r31
    2506:	e2 0f       	add	r30, r18
    2508:	f3 1f       	adc	r31, r19
    250a:	e2 57       	subi	r30, 0x72	; 114
    250c:	f5 4f       	sbci	r31, 0xF5	; 245
    250e:	20 81       	ld	r18, Z
    2510:	82 17       	cp	r24, r18
    2512:	10 f4       	brcc	.+4      	; 0x2518 <led_schreibe_r+0x2e>
    2514:	2d 9a       	sbi	0x05, 5	; 5
    2516:	01 c0       	rjmp	.+2      	; 0x251a <led_schreibe_r+0x30>
    2518:	2d 98       	cbi	0x05, 5	; 5
    251a:	2f 9a       	sbi	0x05, 7	; 5
    251c:	2f 98       	cbi	0x05, 7	; 5
    251e:	4f 5f       	subi	r20, 0xFF	; 255
    2520:	9f 5f       	subi	r25, 0xFF	; 255
    2522:	90 34       	cpi	r25, 0x40	; 64
    2524:	21 f7       	brne	.-56     	; 0x24ee <led_schreibe_r+0x4>
    2526:	2c 9a       	sbi	0x05, 4	; 5
	...
    2530:	2c 98       	cbi	0x05, 4	; 5
    2532:	08 95       	ret

00002534 <led_schreibe_g>:
    2534:	40 e0       	ldi	r20, 0x00	; 0
    2536:	90 e0       	ldi	r25, 0x00	; 0
    2538:	29 2f       	mov	r18, r25
    253a:	2f 70       	andi	r18, 0x0F	; 15
    253c:	21 f4       	brne	.+8      	; 0x2546 <led_schreibe_g+0x12>
    253e:	2d 98       	cbi	0x05, 5	; 5
    2540:	2f 9a       	sbi	0x05, 7	; 5
    2542:	2f 98       	cbi	0x05, 7	; 5
    2544:	12 c0       	rjmp	.+36     	; 0x256a <led_schreibe_g+0x36>
    2546:	24 2f       	mov	r18, r20
    2548:	30 e0       	ldi	r19, 0x00	; 0
    254a:	f9 01       	movw	r30, r18
    254c:	ee 0f       	add	r30, r30
    254e:	ff 1f       	adc	r31, r31
    2550:	e2 0f       	add	r30, r18
    2552:	f3 1f       	adc	r31, r19
    2554:	e2 57       	subi	r30, 0x72	; 114
    2556:	f5 4f       	sbci	r31, 0xF5	; 245
    2558:	21 81       	ldd	r18, Z+1	; 0x01
    255a:	82 17       	cp	r24, r18
    255c:	10 f4       	brcc	.+4      	; 0x2562 <led_schreibe_g+0x2e>
    255e:	2d 9a       	sbi	0x05, 5	; 5
    2560:	01 c0       	rjmp	.+2      	; 0x2564 <led_schreibe_g+0x30>
    2562:	2d 98       	cbi	0x05, 5	; 5
    2564:	2f 9a       	sbi	0x05, 7	; 5
    2566:	2f 98       	cbi	0x05, 7	; 5
    2568:	4f 5f       	subi	r20, 0xFF	; 255
    256a:	9f 5f       	subi	r25, 0xFF	; 255
    256c:	90 34       	cpi	r25, 0x40	; 64
    256e:	21 f7       	brne	.-56     	; 0x2538 <led_schreibe_g+0x4>
    2570:	2c 9a       	sbi	0x05, 4	; 5
	...
    257a:	2c 98       	cbi	0x05, 4	; 5
    257c:	08 95       	ret

0000257e <led_schreibe_b>:
    257e:	40 e0       	ldi	r20, 0x00	; 0
    2580:	90 e0       	ldi	r25, 0x00	; 0
    2582:	29 2f       	mov	r18, r25
    2584:	2f 70       	andi	r18, 0x0F	; 15
    2586:	21 f4       	brne	.+8      	; 0x2590 <led_schreibe_b+0x12>
    2588:	2d 98       	cbi	0x05, 5	; 5
    258a:	2f 9a       	sbi	0x05, 7	; 5
    258c:	2f 98       	cbi	0x05, 7	; 5
    258e:	12 c0       	rjmp	.+36     	; 0x25b4 <led_schreibe_b+0x36>
    2590:	24 2f       	mov	r18, r20
    2592:	30 e0       	ldi	r19, 0x00	; 0
    2594:	f9 01       	movw	r30, r18
    2596:	ee 0f       	add	r30, r30
    2598:	ff 1f       	adc	r31, r31
    259a:	e2 0f       	add	r30, r18
    259c:	f3 1f       	adc	r31, r19
    259e:	e2 57       	subi	r30, 0x72	; 114
    25a0:	f5 4f       	sbci	r31, 0xF5	; 245
    25a2:	22 81       	ldd	r18, Z+2	; 0x02
    25a4:	82 17       	cp	r24, r18
    25a6:	10 f4       	brcc	.+4      	; 0x25ac <led_schreibe_b+0x2e>
    25a8:	2d 9a       	sbi	0x05, 5	; 5
    25aa:	01 c0       	rjmp	.+2      	; 0x25ae <led_schreibe_b+0x30>
    25ac:	2d 98       	cbi	0x05, 5	; 5
    25ae:	2f 9a       	sbi	0x05, 7	; 5
    25b0:	2f 98       	cbi	0x05, 7	; 5
    25b2:	4f 5f       	subi	r20, 0xFF	; 255
    25b4:	9f 5f       	subi	r25, 0xFF	; 255
    25b6:	90 34       	cpi	r25, 0x40	; 64
    25b8:	21 f7       	brne	.-56     	; 0x2582 <led_schreibe_b+0x4>
    25ba:	2c 9a       	sbi	0x05, 4	; 5
	...
    25c4:	2c 98       	cbi	0x05, 4	; 5
    25c6:	08 95       	ret

000025c8 <led_zeiger_init>:
    25c8:	81 e0       	ldi	r24, 0x01	; 1
    25ca:	80 93 e7 0b 	sts	0x0BE7, r24
    25ce:	80 93 e8 0b 	sts	0x0BE8, r24
    25d2:	80 93 e9 0b 	sts	0x0BE9, r24
    25d6:	82 e0       	ldi	r24, 0x02	; 2
    25d8:	80 93 7f 0b 	sts	0x0B7F, r24
    25dc:	80 93 80 0b 	sts	0x0B80, r24
    25e0:	10 92 81 0b 	sts	0x0B81, r1
    25e4:	8a ee       	ldi	r24, 0xEA	; 234
    25e6:	9b e0       	ldi	r25, 0x0B	; 11
    25e8:	90 93 79 0b 	sts	0x0B79, r25
    25ec:	80 93 78 0b 	sts	0x0B78, r24
    25f0:	8d e5       	ldi	r24, 0x5D	; 93
    25f2:	9b e0       	ldi	r25, 0x0B	; 11
    25f4:	90 93 5e 0c 	sts	0x0C5E, r25
    25f8:	80 93 5d 0c 	sts	0x0C5D, r24
    25fc:	8c ec       	ldi	r24, 0xCC	; 204
    25fe:	9b e0       	ldi	r25, 0x0B	; 11
    2600:	90 93 21 0c 	sts	0x0C21, r25
    2604:	80 93 20 0c 	sts	0x0C20, r24
    2608:	20 e0       	ldi	r18, 0x00	; 0
    260a:	30 e0       	ldi	r19, 0x00	; 0
    260c:	c9 01       	movw	r24, r18
    260e:	88 0f       	add	r24, r24
    2610:	99 1f       	adc	r25, r25
    2612:	82 0f       	add	r24, r18
    2614:	93 1f       	adc	r25, r19
    2616:	fc 01       	movw	r30, r24
    2618:	e6 51       	subi	r30, 0x16	; 22
    261a:	f4 4f       	sbci	r31, 0xF4	; 244
    261c:	10 82       	st	Z, r1
    261e:	11 82       	std	Z+1, r1	; 0x01
    2620:	12 82       	std	Z+2, r1	; 0x02
    2622:	fc 01       	movw	r30, r24
    2624:	e3 5a       	subi	r30, 0xA3	; 163
    2626:	f4 4f       	sbci	r31, 0xF4	; 244
    2628:	10 82       	st	Z, r1
    262a:	11 82       	std	Z+1, r1	; 0x01
    262c:	12 82       	std	Z+2, r1	; 0x02
    262e:	fc 01       	movw	r30, r24
    2630:	e4 53       	subi	r30, 0x34	; 52
    2632:	f4 4f       	sbci	r31, 0xF4	; 244
    2634:	10 82       	st	Z, r1
    2636:	11 82       	std	Z+1, r1	; 0x01
    2638:	12 82       	std	Z+2, r1	; 0x02
    263a:	fc 01       	movw	r30, r24
    263c:	eb 5f       	subi	r30, 0xFB	; 251
    263e:	f3 4f       	sbci	r31, 0xF3	; 243
    2640:	10 82       	st	Z, r1
    2642:	11 82       	std	Z+1, r1	; 0x01
    2644:	12 82       	std	Z+2, r1	; 0x02
    2646:	fc 01       	movw	r30, r24
    2648:	ef 54       	subi	r30, 0x4F	; 79
    264a:	f4 4f       	sbci	r31, 0xF4	; 244
    264c:	10 82       	st	Z, r1
    264e:	11 82       	std	Z+1, r1	; 0x01
    2650:	12 82       	std	Z+2, r1	; 0x02
    2652:	fc 01       	movw	r30, r24
    2654:	e4 57       	subi	r30, 0x74	; 116
    2656:	f4 4f       	sbci	r31, 0xF4	; 244
    2658:	10 82       	st	Z, r1
    265a:	11 82       	std	Z+1, r1	; 0x01
    265c:	12 82       	std	Z+2, r1	; 0x02
    265e:	fc 01       	movw	r30, r24
    2660:	ee 5b       	subi	r30, 0xBE	; 190
    2662:	f4 4f       	sbci	r31, 0xF4	; 244
    2664:	10 82       	st	Z, r1
    2666:	11 82       	std	Z+1, r1	; 0x01
    2668:	12 82       	std	Z+2, r1	; 0x02
    266a:	fc 01       	movw	r30, r24
    266c:	ee 5d       	subi	r30, 0xDE	; 222
    266e:	f3 4f       	sbci	r31, 0xF3	; 243
    2670:	10 82       	st	Z, r1
    2672:	11 82       	std	Z+1, r1	; 0x01
    2674:	12 82       	std	Z+2, r1	; 0x02
    2676:	fc 01       	movw	r30, r24
    2678:	e3 5c       	subi	r30, 0xC3	; 195
    267a:	f3 4f       	sbci	r31, 0xF3	; 243
    267c:	10 82       	st	Z, r1
    267e:	11 82       	std	Z+1, r1	; 0x01
    2680:	12 82       	std	Z+2, r1	; 0x02
    2682:	2f 5f       	subi	r18, 0xFF	; 255
    2684:	3f 4f       	sbci	r19, 0xFF	; 255
    2686:	29 30       	cpi	r18, 0x09	; 9
    2688:	31 05       	cpc	r19, r1
    268a:	09 f0       	breq	.+2      	; 0x268e <led_zeiger_init+0xc6>
    268c:	bf cf       	rjmp	.-130    	; 0x260c <led_zeiger_init+0x44>
    268e:	80 e0       	ldi	r24, 0x00	; 0
    2690:	90 e0       	ldi	r25, 0x00	; 0
    2692:	fc 01       	movw	r30, r24
    2694:	ee 0f       	add	r30, r30
    2696:	ff 1f       	adc	r31, r31
    2698:	e8 0f       	add	r30, r24
    269a:	f9 1f       	adc	r31, r25
    269c:	e2 57       	subi	r30, 0x72	; 114
    269e:	f5 4f       	sbci	r31, 0xF5	; 245
    26a0:	10 82       	st	Z, r1
    26a2:	11 82       	std	Z+1, r1	; 0x01
    26a4:	12 82       	std	Z+2, r1	; 0x02
    26a6:	01 96       	adiw	r24, 0x01	; 1
    26a8:	8c 33       	cpi	r24, 0x3C	; 60
    26aa:	91 05       	cpc	r25, r1
    26ac:	91 f7       	brne	.-28     	; 0x2692 <led_zeiger_init+0xca>
    26ae:	80 91 d7 05 	lds	r24, 0x05D7
    26b2:	81 60       	ori	r24, 0x01	; 1
    26b4:	80 93 d7 05 	sts	0x05D7, r24
    26b8:	08 95       	ret

000026ba <led_zeiger_create>:
    26ba:	ff 92       	push	r15
    26bc:	0f 93       	push	r16
    26be:	1f 93       	push	r17
    26c0:	cf 93       	push	r28
    26c2:	df 93       	push	r29
    26c4:	fb 01       	movw	r30, r22
    26c6:	23 81       	ldd	r18, Z+3	; 0x03
    26c8:	25 30       	cpi	r18, 0x05	; 5
    26ca:	10 f0       	brcs	.+4      	; 0x26d0 <led_zeiger_create+0x16>
    26cc:	24 e0       	ldi	r18, 0x04	; 4
    26ce:	23 83       	std	Z+3, r18	; 0x03
    26d0:	24 81       	ldd	r18, Z+4	; 0x04
    26d2:	25 30       	cpi	r18, 0x05	; 5
    26d4:	10 f0       	brcs	.+4      	; 0x26da <led_zeiger_create+0x20>
    26d6:	24 e0       	ldi	r18, 0x04	; 4
    26d8:	24 83       	std	Z+4, r18	; 0x04
    26da:	44 e0       	ldi	r20, 0x04	; 4
    26dc:	23 81       	ldd	r18, Z+3	; 0x03
    26de:	42 1b       	sub	r20, r18
    26e0:	f4 80       	ldd	r15, Z+4	; 0x04
    26e2:	24 e0       	ldi	r18, 0x04	; 4
    26e4:	f2 0e       	add	r15, r18
    26e6:	dc 01       	movw	r26, r24
    26e8:	1c 96       	adiw	r26, 0x0c	; 12
    26ea:	20 81       	ld	r18, Z
    26ec:	ec 01       	movw	r28, r24
    26ee:	2c 87       	std	Y+12, r18	; 0x0c
    26f0:	21 81       	ldd	r18, Z+1	; 0x01
    26f2:	11 96       	adiw	r26, 0x01	; 1
    26f4:	2c 93       	st	X, r18
    26f6:	11 97       	sbiw	r26, 0x01	; 1
    26f8:	22 81       	ldd	r18, Z+2	; 0x02
    26fa:	12 96       	adiw	r26, 0x02	; 2
    26fc:	2c 93       	st	X, r18
    26fe:	12 97       	sbiw	r26, 0x02	; 2
    2700:	8c 01       	movw	r16, r24
    2702:	22 e0       	ldi	r18, 0x02	; 2
    2704:	30 e0       	ldi	r19, 0x00	; 0
    2706:	82 2f       	mov	r24, r18
    2708:	8d 5f       	subi	r24, 0xFD	; 253
    270a:	f8 16       	cp	r15, r24
    270c:	98 f0       	brcs	.+38     	; 0x2734 <led_zeiger_create+0x7a>
    270e:	80 81       	ld	r24, Z
    2710:	90 e0       	ldi	r25, 0x00	; 0
    2712:	b9 01       	movw	r22, r18
    2714:	0e 94 dd 25 	call	0x4bba	; 0x4bba <__divmodhi4>
    2718:	6f 87       	std	Y+15, r22	; 0x0f
    271a:	81 81       	ldd	r24, Z+1	; 0x01
    271c:	90 e0       	ldi	r25, 0x00	; 0
    271e:	b9 01       	movw	r22, r18
    2720:	0e 94 dd 25 	call	0x4bba	; 0x4bba <__divmodhi4>
    2724:	68 8b       	std	Y+16, r22	; 0x10
    2726:	82 81       	ldd	r24, Z+2	; 0x02
    2728:	90 e0       	ldi	r25, 0x00	; 0
    272a:	b9 01       	movw	r22, r18
    272c:	0e 94 dd 25 	call	0x4bba	; 0x4bba <__divmodhi4>
    2730:	69 8b       	std	Y+17, r22	; 0x11
    2732:	03 c0       	rjmp	.+6      	; 0x273a <led_zeiger_create+0x80>
    2734:	1f 86       	std	Y+15, r1	; 0x0f
    2736:	18 8a       	std	Y+16, r1	; 0x10
    2738:	19 8a       	std	Y+17, r1	; 0x11
    273a:	2f 5f       	subi	r18, 0xFF	; 255
    273c:	3f 4f       	sbci	r19, 0xFF	; 255
    273e:	23 96       	adiw	r28, 0x03	; 3
    2740:	26 30       	cpi	r18, 0x06	; 6
    2742:	31 05       	cpc	r19, r1
    2744:	01 f7       	brne	.-64     	; 0x2706 <led_zeiger_create+0x4c>
    2746:	24 e0       	ldi	r18, 0x04	; 4
    2748:	30 e0       	ldi	r19, 0x00	; 0
    274a:	ff 24       	eor	r15, r15
    274c:	f4 16       	cp	r15, r20
    274e:	a8 f0       	brcs	.+42     	; 0x277a <led_zeiger_create+0xc0>
    2750:	80 81       	ld	r24, Z
    2752:	90 e0       	ldi	r25, 0x00	; 0
    2754:	b9 01       	movw	r22, r18
    2756:	0e 94 dd 25 	call	0x4bba	; 0x4bba <__divmodhi4>
    275a:	d8 01       	movw	r26, r16
    275c:	6c 93       	st	X, r22
    275e:	81 81       	ldd	r24, Z+1	; 0x01
    2760:	90 e0       	ldi	r25, 0x00	; 0
    2762:	b9 01       	movw	r22, r18
    2764:	0e 94 dd 25 	call	0x4bba	; 0x4bba <__divmodhi4>
    2768:	e8 01       	movw	r28, r16
    276a:	69 83       	std	Y+1, r22	; 0x01
    276c:	82 81       	ldd	r24, Z+2	; 0x02
    276e:	90 e0       	ldi	r25, 0x00	; 0
    2770:	b9 01       	movw	r22, r18
    2772:	0e 94 dd 25 	call	0x4bba	; 0x4bba <__divmodhi4>
    2776:	6a 83       	std	Y+2, r22	; 0x02
    2778:	07 c0       	rjmp	.+14     	; 0x2788 <led_zeiger_create+0xce>
    277a:	d8 01       	movw	r26, r16
    277c:	1c 92       	st	X, r1
    277e:	11 96       	adiw	r26, 0x01	; 1
    2780:	1c 92       	st	X, r1
    2782:	11 97       	sbiw	r26, 0x01	; 1
    2784:	12 96       	adiw	r26, 0x02	; 2
    2786:	1c 92       	st	X, r1
    2788:	f3 94       	inc	r15
    278a:	21 50       	subi	r18, 0x01	; 1
    278c:	30 40       	sbci	r19, 0x00	; 0
    278e:	0d 5f       	subi	r16, 0xFD	; 253
    2790:	1f 4f       	sbci	r17, 0xFF	; 255
    2792:	bf 2d       	mov	r27, r15
    2794:	b4 30       	cpi	r27, 0x04	; 4
    2796:	d1 f6       	brne	.-76     	; 0x274c <led_zeiger_create+0x92>
    2798:	df 91       	pop	r29
    279a:	cf 91       	pop	r28
    279c:	1f 91       	pop	r17
    279e:	0f 91       	pop	r16
    27a0:	ff 90       	pop	r15
    27a2:	08 95       	ret

000027a4 <led_zeiger_typ1>:
    27a4:	ef 92       	push	r14
    27a6:	ff 92       	push	r15
    27a8:	0f 93       	push	r16
    27aa:	1f 93       	push	r17
    27ac:	60 91 78 0b 	lds	r22, 0x0B78
    27b0:	70 91 79 0b 	lds	r23, 0x0B79
    27b4:	40 91 5d 0c 	lds	r20, 0x0C5D
    27b8:	50 91 5e 0c 	lds	r21, 0x0C5E
    27bc:	20 91 20 0c 	lds	r18, 0x0C20
    27c0:	30 91 21 0c 	lds	r19, 0x0C21
    27c4:	80 e0       	ldi	r24, 0x00	; 0
    27c6:	90 e0       	ldi	r25, 0x00	; 0
    27c8:	fb 01       	movw	r30, r22
    27ca:	e8 0f       	add	r30, r24
    27cc:	f9 1f       	adc	r31, r25
    27ce:	10 82       	st	Z, r1
    27d0:	11 82       	std	Z+1, r1	; 0x01
    27d2:	12 82       	std	Z+2, r1	; 0x02
    27d4:	fa 01       	movw	r30, r20
    27d6:	e8 0f       	add	r30, r24
    27d8:	f9 1f       	adc	r31, r25
    27da:	10 82       	st	Z, r1
    27dc:	11 82       	std	Z+1, r1	; 0x01
    27de:	12 82       	std	Z+2, r1	; 0x02
    27e0:	f9 01       	movw	r30, r18
    27e2:	e8 0f       	add	r30, r24
    27e4:	f9 1f       	adc	r31, r25
    27e6:	10 82       	st	Z, r1
    27e8:	11 82       	std	Z+1, r1	; 0x01
    27ea:	12 82       	std	Z+2, r1	; 0x02
    27ec:	03 96       	adiw	r24, 0x03	; 3
    27ee:	8b 31       	cpi	r24, 0x1B	; 27
    27f0:	91 05       	cpc	r25, r1
    27f2:	51 f7       	brne	.-44     	; 0x27c8 <led_zeiger_typ1+0x24>
    27f4:	0a e0       	ldi	r16, 0x0A	; 10
    27f6:	f0 2e       	mov	r15, r16
    27f8:	f0 92 7a 0b 	sts	0x0B7A, r15
    27fc:	10 92 7b 0b 	sts	0x0B7B, r1
    2800:	10 92 7c 0b 	sts	0x0B7C, r1
    2804:	10 92 7d 0b 	sts	0x0B7D, r1
    2808:	10 92 7e 0b 	sts	0x0B7E, r1
    280c:	10 92 82 0b 	sts	0x0B82, r1
    2810:	f0 92 83 0b 	sts	0x0B83, r15
    2814:	10 92 84 0b 	sts	0x0B84, r1
    2818:	01 e0       	ldi	r16, 0x01	; 1
    281a:	00 93 85 0b 	sts	0x0B85, r16
    281e:	00 93 86 0b 	sts	0x0B86, r16
    2822:	10 92 ac 0b 	sts	0x0BAC, r1
    2826:	10 92 ad 0b 	sts	0x0BAD, r1
    282a:	1f e0       	ldi	r17, 0x0F	; 15
    282c:	e1 2e       	mov	r14, r17
    282e:	e0 92 ae 0b 	sts	0x0BAE, r14
    2832:	12 e0       	ldi	r17, 0x02	; 2
    2834:	10 93 af 0b 	sts	0x0BAF, r17
    2838:	10 93 b0 0b 	sts	0x0BB0, r17
    283c:	8a ee       	ldi	r24, 0xEA	; 234
    283e:	9b e0       	ldi	r25, 0x0B	; 11
    2840:	6a e7       	ldi	r22, 0x7A	; 122
    2842:	7b e0       	ldi	r23, 0x0B	; 11
    2844:	0e 94 5d 13 	call	0x26ba	; 0x26ba <led_zeiger_create>
    2848:	8d e5       	ldi	r24, 0x5D	; 93
    284a:	9b e0       	ldi	r25, 0x0B	; 11
    284c:	62 e8       	ldi	r22, 0x82	; 130
    284e:	7b e0       	ldi	r23, 0x0B	; 11
    2850:	0e 94 5d 13 	call	0x26ba	; 0x26ba <led_zeiger_create>
    2854:	8c ec       	ldi	r24, 0xCC	; 204
    2856:	9b e0       	ldi	r25, 0x0B	; 11
    2858:	6c ea       	ldi	r22, 0xAC	; 172
    285a:	7b e0       	ldi	r23, 0x0B	; 11
    285c:	0e 94 5d 13 	call	0x26ba	; 0x26ba <led_zeiger_create>
    2860:	f0 92 87 0b 	sts	0x0B87, r15
    2864:	10 92 88 0b 	sts	0x0B88, r1
    2868:	10 92 89 0b 	sts	0x0B89, r1
    286c:	10 92 8a 0b 	sts	0x0B8A, r1
    2870:	10 92 8b 0b 	sts	0x0B8B, r1
    2874:	10 92 58 0c 	sts	0x0C58, r1
    2878:	f0 92 59 0c 	sts	0x0C59, r15
    287c:	10 92 5a 0c 	sts	0x0C5A, r1
    2880:	00 93 5b 0c 	sts	0x0C5B, r16
    2884:	00 93 5c 0c 	sts	0x0C5C, r16
    2888:	10 92 a7 0b 	sts	0x0BA7, r1
    288c:	10 92 a8 0b 	sts	0x0BA8, r1
    2890:	e0 92 a9 0b 	sts	0x0BA9, r14
    2894:	10 93 aa 0b 	sts	0x0BAA, r17
    2898:	10 93 ab 0b 	sts	0x0BAB, r17
    289c:	81 eb       	ldi	r24, 0xB1	; 177
    289e:	9b e0       	ldi	r25, 0x0B	; 11
    28a0:	67 e8       	ldi	r22, 0x87	; 135
    28a2:	7b e0       	ldi	r23, 0x0B	; 11
    28a4:	0e 94 5d 13 	call	0x26ba	; 0x26ba <led_zeiger_create>
    28a8:	8c e8       	ldi	r24, 0x8C	; 140
    28aa:	9b e0       	ldi	r25, 0x0B	; 11
    28ac:	68 e5       	ldi	r22, 0x58	; 88
    28ae:	7c e0       	ldi	r23, 0x0C	; 12
    28b0:	0e 94 5d 13 	call	0x26ba	; 0x26ba <led_zeiger_create>
    28b4:	85 e0       	ldi	r24, 0x05	; 5
    28b6:	9c e0       	ldi	r25, 0x0C	; 12
    28b8:	67 ea       	ldi	r22, 0xA7	; 167
    28ba:	7b e0       	ldi	r23, 0x0B	; 11
    28bc:	0e 94 5d 13 	call	0x26ba	; 0x26ba <led_zeiger_create>
    28c0:	1f 91       	pop	r17
    28c2:	0f 91       	pop	r16
    28c4:	ff 90       	pop	r15
    28c6:	ef 90       	pop	r14
    28c8:	08 95       	ret

000028ca <led_zeiger_recreate>:
    28ca:	8a ee       	ldi	r24, 0xEA	; 234
    28cc:	9b e0       	ldi	r25, 0x0B	; 11
    28ce:	6a e7       	ldi	r22, 0x7A	; 122
    28d0:	7b e0       	ldi	r23, 0x0B	; 11
    28d2:	0e 94 5d 13 	call	0x26ba	; 0x26ba <led_zeiger_create>
    28d6:	8d e5       	ldi	r24, 0x5D	; 93
    28d8:	9b e0       	ldi	r25, 0x0B	; 11
    28da:	62 e8       	ldi	r22, 0x82	; 130
    28dc:	7b e0       	ldi	r23, 0x0B	; 11
    28de:	0e 94 5d 13 	call	0x26ba	; 0x26ba <led_zeiger_create>
    28e2:	8c ec       	ldi	r24, 0xCC	; 204
    28e4:	9b e0       	ldi	r25, 0x0B	; 11
    28e6:	6c ea       	ldi	r22, 0xAC	; 172
    28e8:	7b e0       	ldi	r23, 0x0B	; 11
    28ea:	0e 94 5d 13 	call	0x26ba	; 0x26ba <led_zeiger_create>
    28ee:	81 eb       	ldi	r24, 0xB1	; 177
    28f0:	9b e0       	ldi	r25, 0x0B	; 11
    28f2:	67 e8       	ldi	r22, 0x87	; 135
    28f4:	7b e0       	ldi	r23, 0x0B	; 11
    28f6:	0e 94 5d 13 	call	0x26ba	; 0x26ba <led_zeiger_create>
    28fa:	8c e8       	ldi	r24, 0x8C	; 140
    28fc:	9b e0       	ldi	r25, 0x0B	; 11
    28fe:	68 e5       	ldi	r22, 0x58	; 88
    2900:	7c e0       	ldi	r23, 0x0C	; 12
    2902:	0e 94 5d 13 	call	0x26ba	; 0x26ba <led_zeiger_create>
    2906:	85 e0       	ldi	r24, 0x05	; 5
    2908:	9c e0       	ldi	r25, 0x0C	; 12
    290a:	67 ea       	ldi	r22, 0xA7	; 167
    290c:	7b e0       	ldi	r23, 0x0B	; 11
    290e:	0e 94 5d 13 	call	0x26ba	; 0x26ba <led_zeiger_create>
    2912:	08 95       	ret

00002914 <led_zeiger_set_active>:
    2914:	90 91 d7 05 	lds	r25, 0x05D7
    2918:	9e 7f       	andi	r25, 0xFE	; 254
    291a:	90 93 d7 05 	sts	0x05D7, r25
    291e:	90 91 d7 05 	lds	r25, 0x05D7
    2922:	9d 7f       	andi	r25, 0xFD	; 253
    2924:	90 93 d7 05 	sts	0x05D7, r25
    2928:	90 91 d7 05 	lds	r25, 0x05D7
    292c:	9b 7f       	andi	r25, 0xFB	; 251
    292e:	90 93 d7 05 	sts	0x05D7, r25
    2932:	81 30       	cpi	r24, 0x01	; 1
    2934:	19 f0       	breq	.+6      	; 0x293c <led_zeiger_set_active+0x28>
    2936:	82 30       	cpi	r24, 0x02	; 2
    2938:	49 f5       	brne	.+82     	; 0x298c <led_zeiger_set_active+0x78>
    293a:	14 c0       	rjmp	.+40     	; 0x2964 <led_zeiger_set_active+0x50>
    293c:	80 91 d7 05 	lds	r24, 0x05D7
    2940:	82 60       	ori	r24, 0x02	; 2
    2942:	80 93 d7 05 	sts	0x05D7, r24
    2946:	81 eb       	ldi	r24, 0xB1	; 177
    2948:	9b e0       	ldi	r25, 0x0B	; 11
    294a:	90 93 79 0b 	sts	0x0B79, r25
    294e:	80 93 78 0b 	sts	0x0B78, r24
    2952:	8c e8       	ldi	r24, 0x8C	; 140
    2954:	9b e0       	ldi	r25, 0x0B	; 11
    2956:	90 93 5e 0c 	sts	0x0C5E, r25
    295a:	80 93 5d 0c 	sts	0x0C5D, r24
    295e:	85 e0       	ldi	r24, 0x05	; 5
    2960:	9c e0       	ldi	r25, 0x0C	; 12
    2962:	27 c0       	rjmp	.+78     	; 0x29b2 <led_zeiger_set_active+0x9e>
    2964:	80 91 d7 05 	lds	r24, 0x05D7
    2968:	84 60       	ori	r24, 0x04	; 4
    296a:	80 93 d7 05 	sts	0x05D7, r24
    296e:	82 e4       	ldi	r24, 0x42	; 66
    2970:	9b e0       	ldi	r25, 0x0B	; 11
    2972:	90 93 79 0b 	sts	0x0B79, r25
    2976:	80 93 78 0b 	sts	0x0B78, r24
    297a:	82 e2       	ldi	r24, 0x22	; 34
    297c:	9c e0       	ldi	r25, 0x0C	; 12
    297e:	90 93 5e 0c 	sts	0x0C5E, r25
    2982:	80 93 5d 0c 	sts	0x0C5D, r24
    2986:	8d e3       	ldi	r24, 0x3D	; 61
    2988:	9c e0       	ldi	r25, 0x0C	; 12
    298a:	13 c0       	rjmp	.+38     	; 0x29b2 <led_zeiger_set_active+0x9e>
    298c:	80 91 d7 05 	lds	r24, 0x05D7
    2990:	81 60       	ori	r24, 0x01	; 1
    2992:	80 93 d7 05 	sts	0x05D7, r24
    2996:	8a ee       	ldi	r24, 0xEA	; 234
    2998:	9b e0       	ldi	r25, 0x0B	; 11
    299a:	90 93 79 0b 	sts	0x0B79, r25
    299e:	80 93 78 0b 	sts	0x0B78, r24
    29a2:	8d e5       	ldi	r24, 0x5D	; 93
    29a4:	9b e0       	ldi	r25, 0x0B	; 11
    29a6:	90 93 5e 0c 	sts	0x0C5E, r25
    29aa:	80 93 5d 0c 	sts	0x0C5D, r24
    29ae:	8c ec       	ldi	r24, 0xCC	; 204
    29b0:	9b e0       	ldi	r25, 0x0B	; 11
    29b2:	90 93 21 0c 	sts	0x0C21, r25
    29b6:	80 93 20 0c 	sts	0x0C20, r24
    29ba:	08 95       	ret

000029bc <led_zeiger_get_active>:
    29bc:	80 91 d7 05 	lds	r24, 0x05D7
    29c0:	80 fd       	sbrc	r24, 0
    29c2:	09 c0       	rjmp	.+18     	; 0x29d6 <led_zeiger_get_active+0x1a>
    29c4:	80 91 d7 05 	lds	r24, 0x05D7
    29c8:	81 fd       	sbrc	r24, 1
    29ca:	07 c0       	rjmp	.+14     	; 0x29da <led_zeiger_get_active+0x1e>
    29cc:	80 91 d7 05 	lds	r24, 0x05D7
    29d0:	82 fd       	sbrc	r24, 2
    29d2:	05 c0       	rjmp	.+10     	; 0x29de <led_zeiger_get_active+0x22>
    29d4:	08 95       	ret
    29d6:	80 e0       	ldi	r24, 0x00	; 0
    29d8:	08 95       	ret
    29da:	81 e0       	ldi	r24, 0x01	; 1
    29dc:	08 95       	ret
    29de:	82 e0       	ldi	r24, 0x02	; 2
    29e0:	08 95       	ret

000029e2 <led_zeiger_update_dyn_zeiger>:
    29e2:	8f 92       	push	r8
    29e4:	9f 92       	push	r9
    29e6:	bf 92       	push	r11
    29e8:	cf 92       	push	r12
    29ea:	df 92       	push	r13
    29ec:	ef 92       	push	r14
    29ee:	ff 92       	push	r15
    29f0:	0f 93       	push	r16
    29f2:	1f 93       	push	r17
    29f4:	cf 93       	push	r28
    29f6:	df 93       	push	r29
    29f8:	80 91 69 06 	lds	r24, 0x0669
    29fc:	8c 30       	cpi	r24, 0x0C	; 12
    29fe:	08 f0       	brcs	.+2      	; 0x2a02 <led_zeiger_update_dyn_zeiger+0x20>
    2a00:	2a c1       	rjmp	.+596    	; 0x2c56 <led_zeiger_update_dyn_zeiger+0x274>
    2a02:	80 91 6a 06 	lds	r24, 0x066A
    2a06:	20 91 69 06 	lds	r18, 0x0669
    2a0a:	9c e3       	ldi	r25, 0x3C	; 60
    2a0c:	29 9f       	mul	r18, r25
    2a0e:	e0 01       	movw	r28, r0
    2a10:	11 24       	eor	r1, r1
    2a12:	c8 0f       	add	r28, r24
    2a14:	d1 1d       	adc	r29, r1
    2a16:	88 24       	eor	r8, r8
    2a18:	99 24       	eor	r9, r9
    2a1a:	e0 ed       	ldi	r30, 0xD0	; 208
    2a1c:	f2 e0       	ldi	r31, 0x02	; 2
    2a1e:	94 01       	movw	r18, r8
    2a20:	22 0f       	add	r18, r18
    2a22:	33 1f       	adc	r19, r19
    2a24:	28 0d       	add	r18, r8
    2a26:	39 1d       	adc	r19, r9
    2a28:	9a ee       	ldi	r25, 0xEA	; 234
    2a2a:	e9 2e       	mov	r14, r25
    2a2c:	9b e0       	ldi	r25, 0x0B	; 11
    2a2e:	f9 2e       	mov	r15, r25
    2a30:	e2 0e       	add	r14, r18
    2a32:	f3 1e       	adc	r15, r19
    2a34:	d7 01       	movw	r26, r14
    2a36:	6c 91       	ld	r22, X
    2a38:	89 01       	movw	r16, r18
    2a3a:	0f 54       	subi	r16, 0x4F	; 79
    2a3c:	14 4f       	sbci	r17, 0xF4	; 244
    2a3e:	d8 01       	movw	r26, r16
    2a40:	8c 91       	ld	r24, X
    2a42:	4c 91       	ld	r20, X
    2a44:	68 1b       	sub	r22, r24
    2a46:	77 27       	eor	r23, r23
    2a48:	67 fd       	sbrc	r22, 7
    2a4a:	70 95       	com	r23
    2a4c:	6c 9f       	mul	r22, r28
    2a4e:	c0 01       	movw	r24, r0
    2a50:	6d 9f       	mul	r22, r29
    2a52:	90 0d       	add	r25, r0
    2a54:	7c 9f       	mul	r23, r28
    2a56:	90 0d       	add	r25, r0
    2a58:	11 24       	eor	r1, r1
    2a5a:	bf 01       	movw	r22, r30
    2a5c:	0e 94 dd 25 	call	0x4bba	; 0x4bba <__divmodhi4>
    2a60:	46 0f       	add	r20, r22
    2a62:	82 e4       	ldi	r24, 0x42	; 66
    2a64:	c8 2e       	mov	r12, r24
    2a66:	8b e0       	ldi	r24, 0x0B	; 11
    2a68:	d8 2e       	mov	r13, r24
    2a6a:	c2 0e       	add	r12, r18
    2a6c:	d3 1e       	adc	r13, r19
    2a6e:	d6 01       	movw	r26, r12
    2a70:	4c 93       	st	X, r20
    2a72:	d7 01       	movw	r26, r14
    2a74:	11 96       	adiw	r26, 0x01	; 1
    2a76:	4c 91       	ld	r20, X
    2a78:	d8 01       	movw	r26, r16
    2a7a:	11 96       	adiw	r26, 0x01	; 1
    2a7c:	8c 91       	ld	r24, X
    2a7e:	11 97       	sbiw	r26, 0x01	; 1
    2a80:	11 96       	adiw	r26, 0x01	; 1
    2a82:	bc 90       	ld	r11, X
    2a84:	48 1b       	sub	r20, r24
    2a86:	55 27       	eor	r21, r21
    2a88:	47 fd       	sbrc	r20, 7
    2a8a:	50 95       	com	r21
    2a8c:	4c 9f       	mul	r20, r28
    2a8e:	c0 01       	movw	r24, r0
    2a90:	4d 9f       	mul	r20, r29
    2a92:	90 0d       	add	r25, r0
    2a94:	5c 9f       	mul	r21, r28
    2a96:	90 0d       	add	r25, r0
    2a98:	11 24       	eor	r1, r1
    2a9a:	bf 01       	movw	r22, r30
    2a9c:	0e 94 dd 25 	call	0x4bba	; 0x4bba <__divmodhi4>
    2aa0:	b6 0e       	add	r11, r22
    2aa2:	d6 01       	movw	r26, r12
    2aa4:	11 96       	adiw	r26, 0x01	; 1
    2aa6:	bc 92       	st	X, r11
    2aa8:	d7 01       	movw	r26, r14
    2aaa:	12 96       	adiw	r26, 0x02	; 2
    2aac:	6c 91       	ld	r22, X
    2aae:	d8 01       	movw	r26, r16
    2ab0:	12 96       	adiw	r26, 0x02	; 2
    2ab2:	8c 91       	ld	r24, X
    2ab4:	12 97       	sbiw	r26, 0x02	; 2
    2ab6:	12 96       	adiw	r26, 0x02	; 2
    2ab8:	4c 91       	ld	r20, X
    2aba:	68 1b       	sub	r22, r24
    2abc:	77 27       	eor	r23, r23
    2abe:	67 fd       	sbrc	r22, 7
    2ac0:	70 95       	com	r23
    2ac2:	6c 9f       	mul	r22, r28
    2ac4:	c0 01       	movw	r24, r0
    2ac6:	6d 9f       	mul	r22, r29
    2ac8:	90 0d       	add	r25, r0
    2aca:	7c 9f       	mul	r23, r28
    2acc:	90 0d       	add	r25, r0
    2ace:	11 24       	eor	r1, r1
    2ad0:	bf 01       	movw	r22, r30
    2ad2:	0e 94 dd 25 	call	0x4bba	; 0x4bba <__divmodhi4>
    2ad6:	46 0f       	add	r20, r22
    2ad8:	d6 01       	movw	r26, r12
    2ada:	12 96       	adiw	r26, 0x02	; 2
    2adc:	4c 93       	st	X, r20
    2ade:	1d e5       	ldi	r17, 0x5D	; 93
    2ae0:	e1 2e       	mov	r14, r17
    2ae2:	1b e0       	ldi	r17, 0x0B	; 11
    2ae4:	f1 2e       	mov	r15, r17
    2ae6:	e2 0e       	add	r14, r18
    2ae8:	f3 1e       	adc	r15, r19
    2aea:	d7 01       	movw	r26, r14
    2aec:	6c 91       	ld	r22, X
    2aee:	89 01       	movw	r16, r18
    2af0:	04 57       	subi	r16, 0x74	; 116
    2af2:	14 4f       	sbci	r17, 0xF4	; 244
    2af4:	d8 01       	movw	r26, r16
    2af6:	8c 91       	ld	r24, X
    2af8:	4c 91       	ld	r20, X
    2afa:	68 1b       	sub	r22, r24
    2afc:	77 27       	eor	r23, r23
    2afe:	67 fd       	sbrc	r22, 7
    2b00:	70 95       	com	r23
    2b02:	6c 9f       	mul	r22, r28
    2b04:	c0 01       	movw	r24, r0
    2b06:	6d 9f       	mul	r22, r29
    2b08:	90 0d       	add	r25, r0
    2b0a:	7c 9f       	mul	r23, r28
    2b0c:	90 0d       	add	r25, r0
    2b0e:	11 24       	eor	r1, r1
    2b10:	bf 01       	movw	r22, r30
    2b12:	0e 94 dd 25 	call	0x4bba	; 0x4bba <__divmodhi4>
    2b16:	46 0f       	add	r20, r22
    2b18:	b2 e2       	ldi	r27, 0x22	; 34
    2b1a:	cb 2e       	mov	r12, r27
    2b1c:	bc e0       	ldi	r27, 0x0C	; 12
    2b1e:	db 2e       	mov	r13, r27
    2b20:	c2 0e       	add	r12, r18
    2b22:	d3 1e       	adc	r13, r19
    2b24:	d6 01       	movw	r26, r12
    2b26:	4c 93       	st	X, r20
    2b28:	d7 01       	movw	r26, r14
    2b2a:	11 96       	adiw	r26, 0x01	; 1
    2b2c:	4c 91       	ld	r20, X
    2b2e:	d8 01       	movw	r26, r16
    2b30:	11 96       	adiw	r26, 0x01	; 1
    2b32:	8c 91       	ld	r24, X
    2b34:	11 97       	sbiw	r26, 0x01	; 1
    2b36:	11 96       	adiw	r26, 0x01	; 1
    2b38:	bc 90       	ld	r11, X
    2b3a:	48 1b       	sub	r20, r24
    2b3c:	55 27       	eor	r21, r21
    2b3e:	47 fd       	sbrc	r20, 7
    2b40:	50 95       	com	r21
    2b42:	4c 9f       	mul	r20, r28
    2b44:	c0 01       	movw	r24, r0
    2b46:	4d 9f       	mul	r20, r29
    2b48:	90 0d       	add	r25, r0
    2b4a:	5c 9f       	mul	r21, r28
    2b4c:	90 0d       	add	r25, r0
    2b4e:	11 24       	eor	r1, r1
    2b50:	bf 01       	movw	r22, r30
    2b52:	0e 94 dd 25 	call	0x4bba	; 0x4bba <__divmodhi4>
    2b56:	b6 0e       	add	r11, r22
    2b58:	d6 01       	movw	r26, r12
    2b5a:	11 96       	adiw	r26, 0x01	; 1
    2b5c:	bc 92       	st	X, r11
    2b5e:	d7 01       	movw	r26, r14
    2b60:	12 96       	adiw	r26, 0x02	; 2
    2b62:	6c 91       	ld	r22, X
    2b64:	d8 01       	movw	r26, r16
    2b66:	12 96       	adiw	r26, 0x02	; 2
    2b68:	8c 91       	ld	r24, X
    2b6a:	12 97       	sbiw	r26, 0x02	; 2
    2b6c:	12 96       	adiw	r26, 0x02	; 2
    2b6e:	4c 91       	ld	r20, X
    2b70:	68 1b       	sub	r22, r24
    2b72:	77 27       	eor	r23, r23
    2b74:	67 fd       	sbrc	r22, 7
    2b76:	70 95       	com	r23
    2b78:	6c 9f       	mul	r22, r28
    2b7a:	c0 01       	movw	r24, r0
    2b7c:	6d 9f       	mul	r22, r29
    2b7e:	90 0d       	add	r25, r0
    2b80:	7c 9f       	mul	r23, r28
    2b82:	90 0d       	add	r25, r0
    2b84:	11 24       	eor	r1, r1
    2b86:	bf 01       	movw	r22, r30
    2b88:	0e 94 dd 25 	call	0x4bba	; 0x4bba <__divmodhi4>
    2b8c:	46 0f       	add	r20, r22
    2b8e:	d6 01       	movw	r26, r12
    2b90:	12 96       	adiw	r26, 0x02	; 2
    2b92:	4c 93       	st	X, r20
    2b94:	ac ec       	ldi	r26, 0xCC	; 204
    2b96:	ea 2e       	mov	r14, r26
    2b98:	ab e0       	ldi	r26, 0x0B	; 11
    2b9a:	fa 2e       	mov	r15, r26
    2b9c:	e2 0e       	add	r14, r18
    2b9e:	f3 1e       	adc	r15, r19
    2ba0:	d7 01       	movw	r26, r14
    2ba2:	6c 91       	ld	r22, X
    2ba4:	89 01       	movw	r16, r18
    2ba6:	0b 5f       	subi	r16, 0xFB	; 251
    2ba8:	13 4f       	sbci	r17, 0xF3	; 243
    2baa:	d8 01       	movw	r26, r16
    2bac:	8c 91       	ld	r24, X
    2bae:	4c 91       	ld	r20, X
    2bb0:	68 1b       	sub	r22, r24
    2bb2:	77 27       	eor	r23, r23
    2bb4:	67 fd       	sbrc	r22, 7
    2bb6:	70 95       	com	r23
    2bb8:	6c 9f       	mul	r22, r28
    2bba:	c0 01       	movw	r24, r0
    2bbc:	6d 9f       	mul	r22, r29
    2bbe:	90 0d       	add	r25, r0
    2bc0:	7c 9f       	mul	r23, r28
    2bc2:	90 0d       	add	r25, r0
    2bc4:	11 24       	eor	r1, r1
    2bc6:	bf 01       	movw	r22, r30
    2bc8:	0e 94 dd 25 	call	0x4bba	; 0x4bba <__divmodhi4>
    2bcc:	46 0f       	add	r20, r22
    2bce:	23 5c       	subi	r18, 0xC3	; 195
    2bd0:	33 4f       	sbci	r19, 0xF3	; 243
    2bd2:	d9 01       	movw	r26, r18
    2bd4:	4c 93       	st	X, r20
    2bd6:	d7 01       	movw	r26, r14
    2bd8:	11 96       	adiw	r26, 0x01	; 1
    2bda:	6c 91       	ld	r22, X
    2bdc:	d8 01       	movw	r26, r16
    2bde:	11 96       	adiw	r26, 0x01	; 1
    2be0:	8c 91       	ld	r24, X
    2be2:	11 97       	sbiw	r26, 0x01	; 1
    2be4:	11 96       	adiw	r26, 0x01	; 1
    2be6:	4c 91       	ld	r20, X
    2be8:	68 1b       	sub	r22, r24
    2bea:	77 27       	eor	r23, r23
    2bec:	67 fd       	sbrc	r22, 7
    2bee:	70 95       	com	r23
    2bf0:	6c 9f       	mul	r22, r28
    2bf2:	c0 01       	movw	r24, r0
    2bf4:	6d 9f       	mul	r22, r29
    2bf6:	90 0d       	add	r25, r0
    2bf8:	7c 9f       	mul	r23, r28
    2bfa:	90 0d       	add	r25, r0
    2bfc:	11 24       	eor	r1, r1
    2bfe:	bf 01       	movw	r22, r30
    2c00:	0e 94 dd 25 	call	0x4bba	; 0x4bba <__divmodhi4>
    2c04:	46 0f       	add	r20, r22
    2c06:	d9 01       	movw	r26, r18
    2c08:	11 96       	adiw	r26, 0x01	; 1
    2c0a:	4c 93       	st	X, r20
    2c0c:	d7 01       	movw	r26, r14
    2c0e:	12 96       	adiw	r26, 0x02	; 2
    2c10:	4c 91       	ld	r20, X
    2c12:	d8 01       	movw	r26, r16
    2c14:	12 96       	adiw	r26, 0x02	; 2
    2c16:	8c 91       	ld	r24, X
    2c18:	12 97       	sbiw	r26, 0x02	; 2
    2c1a:	12 96       	adiw	r26, 0x02	; 2
    2c1c:	0c 91       	ld	r16, X
    2c1e:	48 1b       	sub	r20, r24
    2c20:	55 27       	eor	r21, r21
    2c22:	47 fd       	sbrc	r20, 7
    2c24:	50 95       	com	r21
    2c26:	4c 9f       	mul	r20, r28
    2c28:	c0 01       	movw	r24, r0
    2c2a:	4d 9f       	mul	r20, r29
    2c2c:	90 0d       	add	r25, r0
    2c2e:	5c 9f       	mul	r21, r28
    2c30:	90 0d       	add	r25, r0
    2c32:	11 24       	eor	r1, r1
    2c34:	bf 01       	movw	r22, r30
    2c36:	0e 94 dd 25 	call	0x4bba	; 0x4bba <__divmodhi4>
    2c3a:	06 0f       	add	r16, r22
    2c3c:	d9 01       	movw	r26, r18
    2c3e:	12 96       	adiw	r26, 0x02	; 2
    2c40:	0c 93       	st	X, r16
    2c42:	12 97       	sbiw	r26, 0x02	; 2
    2c44:	08 94       	sec
    2c46:	81 1c       	adc	r8, r1
    2c48:	91 1c       	adc	r9, r1
    2c4a:	b9 e0       	ldi	r27, 0x09	; 9
    2c4c:	8b 16       	cp	r8, r27
    2c4e:	91 04       	cpc	r9, r1
    2c50:	09 f0       	breq	.+2      	; 0x2c54 <led_zeiger_update_dyn_zeiger+0x272>
    2c52:	e5 ce       	rjmp	.-566    	; 0x2a1e <led_zeiger_update_dyn_zeiger+0x3c>
    2c54:	27 c1       	rjmp	.+590    	; 0x2ea4 <led_zeiger_update_dyn_zeiger+0x4c2>
    2c56:	20 91 6a 06 	lds	r18, 0x066A
    2c5a:	90 91 69 06 	lds	r25, 0x0669
    2c5e:	30 e0       	ldi	r19, 0x00	; 0
    2c60:	20 5d       	subi	r18, 0xD0	; 208
    2c62:	32 40       	sbci	r19, 0x02	; 2
    2c64:	8c e3       	ldi	r24, 0x3C	; 60
    2c66:	98 9f       	mul	r25, r24
    2c68:	c0 01       	movw	r24, r0
    2c6a:	11 24       	eor	r1, r1
    2c6c:	28 0f       	add	r18, r24
    2c6e:	39 1f       	adc	r19, r25
    2c70:	88 24       	eor	r8, r8
    2c72:	99 24       	eor	r9, r9
    2c74:	e0 ed       	ldi	r30, 0xD0	; 208
    2c76:	f2 e0       	ldi	r31, 0x02	; 2
    2c78:	e4 01       	movw	r28, r8
    2c7a:	cc 0f       	add	r28, r28
    2c7c:	dd 1f       	adc	r29, r29
    2c7e:	c8 0d       	add	r28, r8
    2c80:	d9 1d       	adc	r29, r9
    2c82:	61 eb       	ldi	r22, 0xB1	; 177
    2c84:	e6 2e       	mov	r14, r22
    2c86:	6b e0       	ldi	r22, 0x0B	; 11
    2c88:	f6 2e       	mov	r15, r22
    2c8a:	ec 0e       	add	r14, r28
    2c8c:	fd 1e       	adc	r15, r29
    2c8e:	d7 01       	movw	r26, r14
    2c90:	6c 91       	ld	r22, X
    2c92:	8e 01       	movw	r16, r28
    2c94:	06 51       	subi	r16, 0x16	; 22
    2c96:	14 4f       	sbci	r17, 0xF4	; 244
    2c98:	d8 01       	movw	r26, r16
    2c9a:	8c 91       	ld	r24, X
    2c9c:	4c 91       	ld	r20, X
    2c9e:	68 1b       	sub	r22, r24
    2ca0:	77 27       	eor	r23, r23
    2ca2:	67 fd       	sbrc	r22, 7
    2ca4:	70 95       	com	r23
    2ca6:	62 9f       	mul	r22, r18
    2ca8:	c0 01       	movw	r24, r0
    2caa:	63 9f       	mul	r22, r19
    2cac:	90 0d       	add	r25, r0
    2cae:	72 9f       	mul	r23, r18
    2cb0:	90 0d       	add	r25, r0
    2cb2:	11 24       	eor	r1, r1
    2cb4:	bf 01       	movw	r22, r30
    2cb6:	0e 94 dd 25 	call	0x4bba	; 0x4bba <__divmodhi4>
    2cba:	46 0f       	add	r20, r22
    2cbc:	52 e4       	ldi	r21, 0x42	; 66
    2cbe:	c5 2e       	mov	r12, r21
    2cc0:	5b e0       	ldi	r21, 0x0B	; 11
    2cc2:	d5 2e       	mov	r13, r21
    2cc4:	cc 0e       	add	r12, r28
    2cc6:	dd 1e       	adc	r13, r29
    2cc8:	d6 01       	movw	r26, r12
    2cca:	4c 93       	st	X, r20
    2ccc:	d7 01       	movw	r26, r14
    2cce:	11 96       	adiw	r26, 0x01	; 1
    2cd0:	4c 91       	ld	r20, X
    2cd2:	d8 01       	movw	r26, r16
    2cd4:	11 96       	adiw	r26, 0x01	; 1
    2cd6:	8c 91       	ld	r24, X
    2cd8:	11 97       	sbiw	r26, 0x01	; 1
    2cda:	11 96       	adiw	r26, 0x01	; 1
    2cdc:	bc 90       	ld	r11, X
    2cde:	48 1b       	sub	r20, r24
    2ce0:	55 27       	eor	r21, r21
    2ce2:	47 fd       	sbrc	r20, 7
    2ce4:	50 95       	com	r21
    2ce6:	42 9f       	mul	r20, r18
    2ce8:	c0 01       	movw	r24, r0
    2cea:	43 9f       	mul	r20, r19
    2cec:	90 0d       	add	r25, r0
    2cee:	52 9f       	mul	r21, r18
    2cf0:	90 0d       	add	r25, r0
    2cf2:	11 24       	eor	r1, r1
    2cf4:	bf 01       	movw	r22, r30
    2cf6:	0e 94 dd 25 	call	0x4bba	; 0x4bba <__divmodhi4>
    2cfa:	b6 0e       	add	r11, r22
    2cfc:	d6 01       	movw	r26, r12
    2cfe:	11 96       	adiw	r26, 0x01	; 1
    2d00:	bc 92       	st	X, r11
    2d02:	d7 01       	movw	r26, r14
    2d04:	12 96       	adiw	r26, 0x02	; 2
    2d06:	6c 91       	ld	r22, X
    2d08:	d8 01       	movw	r26, r16
    2d0a:	12 96       	adiw	r26, 0x02	; 2
    2d0c:	8c 91       	ld	r24, X
    2d0e:	12 97       	sbiw	r26, 0x02	; 2
    2d10:	12 96       	adiw	r26, 0x02	; 2
    2d12:	4c 91       	ld	r20, X
    2d14:	68 1b       	sub	r22, r24
    2d16:	77 27       	eor	r23, r23
    2d18:	67 fd       	sbrc	r22, 7
    2d1a:	70 95       	com	r23
    2d1c:	62 9f       	mul	r22, r18
    2d1e:	c0 01       	movw	r24, r0
    2d20:	63 9f       	mul	r22, r19
    2d22:	90 0d       	add	r25, r0
    2d24:	72 9f       	mul	r23, r18
    2d26:	90 0d       	add	r25, r0
    2d28:	11 24       	eor	r1, r1
    2d2a:	bf 01       	movw	r22, r30
    2d2c:	0e 94 dd 25 	call	0x4bba	; 0x4bba <__divmodhi4>
    2d30:	46 0f       	add	r20, r22
    2d32:	d6 01       	movw	r26, r12
    2d34:	12 96       	adiw	r26, 0x02	; 2
    2d36:	4c 93       	st	X, r20
    2d38:	4c e8       	ldi	r20, 0x8C	; 140
    2d3a:	e4 2e       	mov	r14, r20
    2d3c:	4b e0       	ldi	r20, 0x0B	; 11
    2d3e:	f4 2e       	mov	r15, r20
    2d40:	ec 0e       	add	r14, r28
    2d42:	fd 1e       	adc	r15, r29
    2d44:	d7 01       	movw	r26, r14
    2d46:	6c 91       	ld	r22, X
    2d48:	8e 01       	movw	r16, r28
    2d4a:	03 5a       	subi	r16, 0xA3	; 163
    2d4c:	14 4f       	sbci	r17, 0xF4	; 244
    2d4e:	d8 01       	movw	r26, r16
    2d50:	8c 91       	ld	r24, X
    2d52:	4c 91       	ld	r20, X
    2d54:	68 1b       	sub	r22, r24
    2d56:	77 27       	eor	r23, r23
    2d58:	67 fd       	sbrc	r22, 7
    2d5a:	70 95       	com	r23
    2d5c:	62 9f       	mul	r22, r18
    2d5e:	c0 01       	movw	r24, r0
    2d60:	63 9f       	mul	r22, r19
    2d62:	90 0d       	add	r25, r0
    2d64:	72 9f       	mul	r23, r18
    2d66:	90 0d       	add	r25, r0
    2d68:	11 24       	eor	r1, r1
    2d6a:	bf 01       	movw	r22, r30
    2d6c:	0e 94 dd 25 	call	0x4bba	; 0x4bba <__divmodhi4>
    2d70:	46 0f       	add	r20, r22
    2d72:	92 e2       	ldi	r25, 0x22	; 34
    2d74:	c9 2e       	mov	r12, r25
    2d76:	9c e0       	ldi	r25, 0x0C	; 12
    2d78:	d9 2e       	mov	r13, r25
    2d7a:	cc 0e       	add	r12, r28
    2d7c:	dd 1e       	adc	r13, r29
    2d7e:	d6 01       	movw	r26, r12
    2d80:	4c 93       	st	X, r20
    2d82:	d7 01       	movw	r26, r14
    2d84:	11 96       	adiw	r26, 0x01	; 1
    2d86:	4c 91       	ld	r20, X
    2d88:	d8 01       	movw	r26, r16
    2d8a:	11 96       	adiw	r26, 0x01	; 1
    2d8c:	8c 91       	ld	r24, X
    2d8e:	11 97       	sbiw	r26, 0x01	; 1
    2d90:	11 96       	adiw	r26, 0x01	; 1
    2d92:	bc 90       	ld	r11, X
    2d94:	48 1b       	sub	r20, r24
    2d96:	55 27       	eor	r21, r21
    2d98:	47 fd       	sbrc	r20, 7
    2d9a:	50 95       	com	r21
    2d9c:	42 9f       	mul	r20, r18
    2d9e:	c0 01       	movw	r24, r0
    2da0:	43 9f       	mul	r20, r19
    2da2:	90 0d       	add	r25, r0
    2da4:	52 9f       	mul	r21, r18
    2da6:	90 0d       	add	r25, r0
    2da8:	11 24       	eor	r1, r1
    2daa:	bf 01       	movw	r22, r30
    2dac:	0e 94 dd 25 	call	0x4bba	; 0x4bba <__divmodhi4>
    2db0:	b6 0e       	add	r11, r22
    2db2:	d6 01       	movw	r26, r12
    2db4:	11 96       	adiw	r26, 0x01	; 1
    2db6:	bc 92       	st	X, r11
    2db8:	d7 01       	movw	r26, r14
    2dba:	12 96       	adiw	r26, 0x02	; 2
    2dbc:	6c 91       	ld	r22, X
    2dbe:	d8 01       	movw	r26, r16
    2dc0:	12 96       	adiw	r26, 0x02	; 2
    2dc2:	8c 91       	ld	r24, X
    2dc4:	12 97       	sbiw	r26, 0x02	; 2
    2dc6:	12 96       	adiw	r26, 0x02	; 2
    2dc8:	4c 91       	ld	r20, X
    2dca:	68 1b       	sub	r22, r24
    2dcc:	77 27       	eor	r23, r23
    2dce:	67 fd       	sbrc	r22, 7
    2dd0:	70 95       	com	r23
    2dd2:	62 9f       	mul	r22, r18
    2dd4:	c0 01       	movw	r24, r0
    2dd6:	63 9f       	mul	r22, r19
    2dd8:	90 0d       	add	r25, r0
    2dda:	72 9f       	mul	r23, r18
    2ddc:	90 0d       	add	r25, r0
    2dde:	11 24       	eor	r1, r1
    2de0:	bf 01       	movw	r22, r30
    2de2:	0e 94 dd 25 	call	0x4bba	; 0x4bba <__divmodhi4>
    2de6:	46 0f       	add	r20, r22
    2de8:	d6 01       	movw	r26, r12
    2dea:	12 96       	adiw	r26, 0x02	; 2
    2dec:	4c 93       	st	X, r20
    2dee:	85 e0       	ldi	r24, 0x05	; 5
    2df0:	e8 2e       	mov	r14, r24
    2df2:	8c e0       	ldi	r24, 0x0C	; 12
    2df4:	f8 2e       	mov	r15, r24
    2df6:	ec 0e       	add	r14, r28
    2df8:	fd 1e       	adc	r15, r29
    2dfa:	d7 01       	movw	r26, r14
    2dfc:	6c 91       	ld	r22, X
    2dfe:	8e 01       	movw	r16, r28
    2e00:	04 53       	subi	r16, 0x34	; 52
    2e02:	14 4f       	sbci	r17, 0xF4	; 244
    2e04:	d8 01       	movw	r26, r16
    2e06:	8c 91       	ld	r24, X
    2e08:	4c 91       	ld	r20, X
    2e0a:	68 1b       	sub	r22, r24
    2e0c:	77 27       	eor	r23, r23
    2e0e:	67 fd       	sbrc	r22, 7
    2e10:	70 95       	com	r23
    2e12:	62 9f       	mul	r22, r18
    2e14:	c0 01       	movw	r24, r0
    2e16:	63 9f       	mul	r22, r19
    2e18:	90 0d       	add	r25, r0
    2e1a:	72 9f       	mul	r23, r18
    2e1c:	90 0d       	add	r25, r0
    2e1e:	11 24       	eor	r1, r1
    2e20:	bf 01       	movw	r22, r30
    2e22:	0e 94 dd 25 	call	0x4bba	; 0x4bba <__divmodhi4>
    2e26:	46 0f       	add	r20, r22
    2e28:	c3 5c       	subi	r28, 0xC3	; 195
    2e2a:	d3 4f       	sbci	r29, 0xF3	; 243
    2e2c:	48 83       	st	Y, r20
    2e2e:	d7 01       	movw	r26, r14
    2e30:	11 96       	adiw	r26, 0x01	; 1
    2e32:	6c 91       	ld	r22, X
    2e34:	d8 01       	movw	r26, r16
    2e36:	11 96       	adiw	r26, 0x01	; 1
    2e38:	8c 91       	ld	r24, X
    2e3a:	11 97       	sbiw	r26, 0x01	; 1
    2e3c:	11 96       	adiw	r26, 0x01	; 1
    2e3e:	4c 91       	ld	r20, X
    2e40:	68 1b       	sub	r22, r24
    2e42:	77 27       	eor	r23, r23
    2e44:	67 fd       	sbrc	r22, 7
    2e46:	70 95       	com	r23
    2e48:	62 9f       	mul	r22, r18
    2e4a:	c0 01       	movw	r24, r0
    2e4c:	63 9f       	mul	r22, r19
    2e4e:	90 0d       	add	r25, r0
    2e50:	72 9f       	mul	r23, r18
    2e52:	90 0d       	add	r25, r0
    2e54:	11 24       	eor	r1, r1
    2e56:	bf 01       	movw	r22, r30
    2e58:	0e 94 dd 25 	call	0x4bba	; 0x4bba <__divmodhi4>
    2e5c:	46 0f       	add	r20, r22
    2e5e:	49 83       	std	Y+1, r20	; 0x01
    2e60:	d7 01       	movw	r26, r14
    2e62:	12 96       	adiw	r26, 0x02	; 2
    2e64:	4c 91       	ld	r20, X
    2e66:	d8 01       	movw	r26, r16
    2e68:	12 96       	adiw	r26, 0x02	; 2
    2e6a:	8c 91       	ld	r24, X
    2e6c:	12 97       	sbiw	r26, 0x02	; 2
    2e6e:	12 96       	adiw	r26, 0x02	; 2
    2e70:	0c 91       	ld	r16, X
    2e72:	12 97       	sbiw	r26, 0x02	; 2
    2e74:	48 1b       	sub	r20, r24
    2e76:	55 27       	eor	r21, r21
    2e78:	47 fd       	sbrc	r20, 7
    2e7a:	50 95       	com	r21
    2e7c:	42 9f       	mul	r20, r18
    2e7e:	c0 01       	movw	r24, r0
    2e80:	43 9f       	mul	r20, r19
    2e82:	90 0d       	add	r25, r0
    2e84:	52 9f       	mul	r21, r18
    2e86:	90 0d       	add	r25, r0
    2e88:	11 24       	eor	r1, r1
    2e8a:	bf 01       	movw	r22, r30
    2e8c:	0e 94 dd 25 	call	0x4bba	; 0x4bba <__divmodhi4>
    2e90:	06 0f       	add	r16, r22
    2e92:	0a 83       	std	Y+2, r16	; 0x02
    2e94:	08 94       	sec
    2e96:	81 1c       	adc	r8, r1
    2e98:	91 1c       	adc	r9, r1
    2e9a:	b9 e0       	ldi	r27, 0x09	; 9
    2e9c:	8b 16       	cp	r8, r27
    2e9e:	91 04       	cpc	r9, r1
    2ea0:	09 f0       	breq	.+2      	; 0x2ea4 <led_zeiger_update_dyn_zeiger+0x4c2>
    2ea2:	ea ce       	rjmp	.-556    	; 0x2c78 <led_zeiger_update_dyn_zeiger+0x296>
    2ea4:	df 91       	pop	r29
    2ea6:	cf 91       	pop	r28
    2ea8:	1f 91       	pop	r17
    2eaa:	0f 91       	pop	r16
    2eac:	ff 90       	pop	r15
    2eae:	ef 90       	pop	r14
    2eb0:	df 90       	pop	r13
    2eb2:	cf 90       	pop	r12
    2eb4:	bf 90       	pop	r11
    2eb6:	9f 90       	pop	r9
    2eb8:	8f 90       	pop	r8
    2eba:	08 95       	ret

00002ebc <led_zeiger_update>:
    2ebc:	ff 92       	push	r15
    2ebe:	0f 93       	push	r16
    2ec0:	1f 93       	push	r17
    2ec2:	cf 93       	push	r28
    2ec4:	df 93       	push	r29
    2ec6:	26 2f       	mov	r18, r22
    2ec8:	38 2f       	mov	r19, r24
    2eca:	33 0f       	add	r19, r19
    2ecc:	33 0f       	add	r19, r19
    2ece:	8c 30       	cpi	r24, 0x0C	; 12
    2ed0:	18 f0       	brcs	.+6      	; 0x2ed8 <led_zeiger_update+0x1c>
    2ed2:	38 0f       	add	r19, r24
    2ed4:	3c 53       	subi	r19, 0x3C	; 60
    2ed6:	01 c0       	rjmp	.+2      	; 0x2eda <led_zeiger_update+0x1e>
    2ed8:	38 0f       	add	r19, r24
    2eda:	82 2f       	mov	r24, r18
    2edc:	6c e0       	ldi	r22, 0x0C	; 12
    2ede:	0e 94 bd 25 	call	0x4b7a	; 0x4b7a <__udivmodqi4>
    2ee2:	6c ef       	ldi	r22, 0xFC	; 252
    2ee4:	f6 2e       	mov	r15, r22
    2ee6:	f4 0e       	add	r15, r20
    2ee8:	9f 2d       	mov	r25, r15
    2eea:	9c 33       	cpi	r25, 0x3C	; 60
    2eec:	18 f0       	brcs	.+6      	; 0x2ef4 <led_zeiger_update+0x38>
    2eee:	58 e3       	ldi	r21, 0x38	; 56
    2ef0:	f5 2e       	mov	r15, r21
    2ef2:	f4 0e       	add	r15, r20
    2ef4:	02 2f       	mov	r16, r18
    2ef6:	04 50       	subi	r16, 0x04	; 4
    2ef8:	0c 33       	cpi	r16, 0x3C	; 60
    2efa:	08 f0       	brcs	.+2      	; 0x2efe <led_zeiger_update+0x42>
    2efc:	04 5c       	subi	r16, 0xC4	; 196
    2efe:	18 2f       	mov	r17, r24
    2f00:	14 50       	subi	r17, 0x04	; 4
    2f02:	13 0f       	add	r17, r19
    2f04:	1c 33       	cpi	r17, 0x3C	; 60
    2f06:	08 f0       	brcs	.+2      	; 0x2f0a <led_zeiger_update+0x4e>
    2f08:	14 5c       	subi	r17, 0xC4	; 196
    2f0a:	20 e0       	ldi	r18, 0x00	; 0
    2f0c:	30 e0       	ldi	r19, 0x00	; 0
    2f0e:	af e0       	ldi	r26, 0x0F	; 15
    2f10:	55 e0       	ldi	r21, 0x05	; 5
    2f12:	82 2f       	mov	r24, r18
    2f14:	6a 2f       	mov	r22, r26
    2f16:	0e 94 bd 25 	call	0x4b7a	; 0x4b7a <__udivmodqi4>
    2f1a:	99 23       	and	r25, r25
    2f1c:	81 f4       	brne	.+32     	; 0x2f3e <led_zeiger_update+0x82>
    2f1e:	80 91 7f 0b 	lds	r24, 0x0B7F
    2f22:	f9 01       	movw	r30, r18
    2f24:	ee 0f       	add	r30, r30
    2f26:	ff 1f       	adc	r31, r31
    2f28:	e2 0f       	add	r30, r18
    2f2a:	f3 1f       	adc	r31, r19
    2f2c:	e2 57       	subi	r30, 0x72	; 114
    2f2e:	f5 4f       	sbci	r31, 0xF5	; 245
    2f30:	80 83       	st	Z, r24
    2f32:	80 91 80 0b 	lds	r24, 0x0B80
    2f36:	81 83       	std	Z+1, r24	; 0x01
    2f38:	80 91 81 0b 	lds	r24, 0x0B81
    2f3c:	15 c0       	rjmp	.+42     	; 0x2f68 <led_zeiger_update+0xac>
    2f3e:	82 2f       	mov	r24, r18
    2f40:	65 2f       	mov	r22, r21
    2f42:	0e 94 bd 25 	call	0x4b7a	; 0x4b7a <__udivmodqi4>
    2f46:	f9 01       	movw	r30, r18
    2f48:	ee 0f       	add	r30, r30
    2f4a:	ff 1f       	adc	r31, r31
    2f4c:	99 23       	and	r25, r25
    2f4e:	71 f4       	brne	.+28     	; 0x2f6c <led_zeiger_update+0xb0>
    2f50:	80 91 e7 0b 	lds	r24, 0x0BE7
    2f54:	e2 0f       	add	r30, r18
    2f56:	f3 1f       	adc	r31, r19
    2f58:	e2 57       	subi	r30, 0x72	; 114
    2f5a:	f5 4f       	sbci	r31, 0xF5	; 245
    2f5c:	80 83       	st	Z, r24
    2f5e:	80 91 e8 0b 	lds	r24, 0x0BE8
    2f62:	81 83       	std	Z+1, r24	; 0x01
    2f64:	80 91 e9 0b 	lds	r24, 0x0BE9
    2f68:	82 83       	std	Z+2, r24	; 0x02
    2f6a:	07 c0       	rjmp	.+14     	; 0x2f7a <led_zeiger_update+0xbe>
    2f6c:	e2 0f       	add	r30, r18
    2f6e:	f3 1f       	adc	r31, r19
    2f70:	e2 57       	subi	r30, 0x72	; 114
    2f72:	f5 4f       	sbci	r31, 0xF5	; 245
    2f74:	10 82       	st	Z, r1
    2f76:	11 82       	std	Z+1, r1	; 0x01
    2f78:	12 82       	std	Z+2, r1	; 0x02
    2f7a:	2f 5f       	subi	r18, 0xFF	; 255
    2f7c:	3f 4f       	sbci	r19, 0xFF	; 255
    2f7e:	2c 33       	cpi	r18, 0x3C	; 60
    2f80:	31 05       	cpc	r19, r1
    2f82:	39 f6       	brne	.-114    	; 0x2f12 <led_zeiger_update+0x56>
    2f84:	a0 91 20 0c 	lds	r26, 0x0C20
    2f88:	b0 91 21 0c 	lds	r27, 0x0C21
    2f8c:	60 91 5d 0c 	lds	r22, 0x0C5D
    2f90:	70 91 5e 0c 	lds	r23, 0x0C5E
    2f94:	40 91 78 0b 	lds	r20, 0x0B78
    2f98:	50 91 79 0b 	lds	r21, 0x0B79
    2f9c:	20 e0       	ldi	r18, 0x00	; 0
    2f9e:	30 e0       	ldi	r19, 0x00	; 0
    2fa0:	81 2f       	mov	r24, r17
    2fa2:	90 e0       	ldi	r25, 0x00	; 0
    2fa4:	fc 01       	movw	r30, r24
    2fa6:	ee 0f       	add	r30, r30
    2fa8:	ff 1f       	adc	r31, r31
    2faa:	e8 0f       	add	r30, r24
    2fac:	f9 1f       	adc	r31, r25
    2fae:	e2 57       	subi	r30, 0x72	; 114
    2fb0:	f5 4f       	sbci	r31, 0xF5	; 245
    2fb2:	90 81       	ld	r25, Z
    2fb4:	ed 01       	movw	r28, r26
    2fb6:	c2 0f       	add	r28, r18
    2fb8:	d3 1f       	adc	r29, r19
    2fba:	88 81       	ld	r24, Y
    2fbc:	89 2b       	or	r24, r25
    2fbe:	80 83       	st	Z, r24
    2fc0:	91 81       	ldd	r25, Z+1	; 0x01
    2fc2:	89 81       	ldd	r24, Y+1	; 0x01
    2fc4:	89 2b       	or	r24, r25
    2fc6:	81 83       	std	Z+1, r24	; 0x01
    2fc8:	92 81       	ldd	r25, Z+2	; 0x02
    2fca:	8a 81       	ldd	r24, Y+2	; 0x02
    2fcc:	89 2b       	or	r24, r25
    2fce:	82 83       	std	Z+2, r24	; 0x02
    2fd0:	80 2f       	mov	r24, r16
    2fd2:	90 e0       	ldi	r25, 0x00	; 0
    2fd4:	fc 01       	movw	r30, r24
    2fd6:	ee 0f       	add	r30, r30
    2fd8:	ff 1f       	adc	r31, r31
    2fda:	e8 0f       	add	r30, r24
    2fdc:	f9 1f       	adc	r31, r25
    2fde:	e2 57       	subi	r30, 0x72	; 114
    2fe0:	f5 4f       	sbci	r31, 0xF5	; 245
    2fe2:	90 81       	ld	r25, Z
    2fe4:	eb 01       	movw	r28, r22
    2fe6:	c2 0f       	add	r28, r18
    2fe8:	d3 1f       	adc	r29, r19
    2fea:	88 81       	ld	r24, Y
    2fec:	89 2b       	or	r24, r25
    2fee:	80 83       	st	Z, r24
    2ff0:	91 81       	ldd	r25, Z+1	; 0x01
    2ff2:	89 81       	ldd	r24, Y+1	; 0x01
    2ff4:	89 2b       	or	r24, r25
    2ff6:	81 83       	std	Z+1, r24	; 0x01
    2ff8:	92 81       	ldd	r25, Z+2	; 0x02
    2ffa:	8a 81       	ldd	r24, Y+2	; 0x02
    2ffc:	89 2b       	or	r24, r25
    2ffe:	82 83       	std	Z+2, r24	; 0x02
    3000:	8f 2d       	mov	r24, r15
    3002:	90 e0       	ldi	r25, 0x00	; 0
    3004:	fc 01       	movw	r30, r24
    3006:	ee 0f       	add	r30, r30
    3008:	ff 1f       	adc	r31, r31
    300a:	e8 0f       	add	r30, r24
    300c:	f9 1f       	adc	r31, r25
    300e:	e2 57       	subi	r30, 0x72	; 114
    3010:	f5 4f       	sbci	r31, 0xF5	; 245
    3012:	90 81       	ld	r25, Z
    3014:	ea 01       	movw	r28, r20
    3016:	c2 0f       	add	r28, r18
    3018:	d3 1f       	adc	r29, r19
    301a:	88 81       	ld	r24, Y
    301c:	89 2b       	or	r24, r25
    301e:	80 83       	st	Z, r24
    3020:	91 81       	ldd	r25, Z+1	; 0x01
    3022:	89 81       	ldd	r24, Y+1	; 0x01
    3024:	89 2b       	or	r24, r25
    3026:	81 83       	std	Z+1, r24	; 0x01
    3028:	92 81       	ldd	r25, Z+2	; 0x02
    302a:	8a 81       	ldd	r24, Y+2	; 0x02
    302c:	89 2b       	or	r24, r25
    302e:	82 83       	std	Z+2, r24	; 0x02
    3030:	1f 5f       	subi	r17, 0xFF	; 255
    3032:	1c 33       	cpi	r17, 0x3C	; 60
    3034:	09 f4       	brne	.+2      	; 0x3038 <led_zeiger_update+0x17c>
    3036:	10 e0       	ldi	r17, 0x00	; 0
    3038:	0f 5f       	subi	r16, 0xFF	; 255
    303a:	0c 33       	cpi	r16, 0x3C	; 60
    303c:	09 f4       	brne	.+2      	; 0x3040 <led_zeiger_update+0x184>
    303e:	00 e0       	ldi	r16, 0x00	; 0
    3040:	f3 94       	inc	r15
    3042:	8f 2d       	mov	r24, r15
    3044:	8c 33       	cpi	r24, 0x3C	; 60
    3046:	09 f4       	brne	.+2      	; 0x304a <led_zeiger_update+0x18e>
    3048:	ff 24       	eor	r15, r15
    304a:	2d 5f       	subi	r18, 0xFD	; 253
    304c:	3f 4f       	sbci	r19, 0xFF	; 255
    304e:	2b 31       	cpi	r18, 0x1B	; 27
    3050:	31 05       	cpc	r19, r1
    3052:	09 f0       	breq	.+2      	; 0x3056 <led_zeiger_update+0x19a>
    3054:	a5 cf       	rjmp	.-182    	; 0x2fa0 <led_zeiger_update+0xe4>
    3056:	df 91       	pop	r29
    3058:	cf 91       	pop	r28
    305a:	1f 91       	pop	r17
    305c:	0f 91       	pop	r16
    305e:	ff 90       	pop	r15
    3060:	08 95       	ret

00003062 <menu_init>:
    3062:	10 92 0e 03 	sts	0x030E, r1
    3066:	10 92 72 0c 	sts	0x0C72, r1
    306a:	10 92 69 0c 	sts	0x0C69, r1
    306e:	10 92 68 0c 	sts	0x0C68, r1
    3072:	08 95       	ret

00003074 <menu_draw>:
    3074:	ff 92       	push	r15
    3076:	0f 93       	push	r16
    3078:	1f 93       	push	r17
    307a:	cf 93       	push	r28
    307c:	df 93       	push	r29
    307e:	ec 01       	movw	r28, r24
    3080:	18 81       	ld	r17, Y
    3082:	18 7f       	andi	r17, 0xF8	; 248
    3084:	09 81       	ldd	r16, Y+1	; 0x01
    3086:	81 2f       	mov	r24, r17
    3088:	90 e0       	ldi	r25, 0x00	; 0
    308a:	08 96       	adiw	r24, 0x08	; 8
    308c:	20 2f       	mov	r18, r16
    308e:	30 e0       	ldi	r19, 0x00	; 0
    3090:	82 17       	cp	r24, r18
    3092:	93 07       	cpc	r25, r19
    3094:	14 f4       	brge	.+4      	; 0x309a <menu_draw+0x26>
    3096:	01 2f       	mov	r16, r17
    3098:	08 5f       	subi	r16, 0xF8	; 248
    309a:	0e 94 db 0c 	call	0x19b6	; 0x19b6 <lcd_clear_cs1>
    309e:	ff 24       	eor	r15, r15
    30a0:	1c c0       	rjmp	.+56     	; 0x30da <menu_draw+0x66>
    30a2:	80 e0       	ldi	r24, 0x00	; 0
    30a4:	6f 2d       	mov	r22, r15
    30a6:	0e 94 56 0e 	call	0x1cac	; 0x1cac <lcd_setpos>
    30aa:	28 81       	ld	r18, Y
    30ac:	8a 81       	ldd	r24, Y+2	; 0x02
    30ae:	9b 81       	ldd	r25, Y+3	; 0x03
    30b0:	12 17       	cp	r17, r18
    30b2:	41 f4       	brne	.+16     	; 0x30c4 <menu_draw+0x50>
    30b4:	4e e0       	ldi	r20, 0x0E	; 14
    30b6:	14 9f       	mul	r17, r20
    30b8:	90 01       	movw	r18, r0
    30ba:	11 24       	eor	r1, r1
    30bc:	82 0f       	add	r24, r18
    30be:	93 1f       	adc	r25, r19
    30c0:	61 e0       	ldi	r22, 0x01	; 1
    30c2:	07 c0       	rjmp	.+14     	; 0x30d2 <menu_draw+0x5e>
    30c4:	4e e0       	ldi	r20, 0x0E	; 14
    30c6:	14 9f       	mul	r17, r20
    30c8:	90 01       	movw	r18, r0
    30ca:	11 24       	eor	r1, r1
    30cc:	82 0f       	add	r24, r18
    30ce:	93 1f       	adc	r25, r19
    30d0:	60 e0       	ldi	r22, 0x00	; 0
    30d2:	0e 94 dd 0d 	call	0x1bba	; 0x1bba <lcd_putstr>
    30d6:	1f 5f       	subi	r17, 0xFF	; 255
    30d8:	f3 94       	inc	r15
    30da:	10 17       	cp	r17, r16
    30dc:	10 f3       	brcs	.-60     	; 0x30a2 <menu_draw+0x2e>
    30de:	0e 94 0e 0d 	call	0x1a1c	; 0x1a1c <lcd_redraw>
    30e2:	df 91       	pop	r29
    30e4:	cf 91       	pop	r28
    30e6:	1f 91       	pop	r17
    30e8:	0f 91       	pop	r16
    30ea:	ff 90       	pop	r15
    30ec:	08 95       	ret

000030ee <menu_start>:
    30ee:	10 92 5f 0c 	sts	0x0C5F, r1
    30f2:	10 92 0e 03 	sts	0x030E, r1
    30f6:	81 e0       	ldi	r24, 0x01	; 1
    30f8:	80 93 72 0c 	sts	0x0C72, r24
    30fc:	8e e0       	ldi	r24, 0x0E	; 14
    30fe:	93 e0       	ldi	r25, 0x03	; 3
    3100:	90 93 69 0c 	sts	0x0C69, r25
    3104:	80 93 68 0c 	sts	0x0C68, r24
    3108:	10 92 60 0c 	sts	0x0C60, r1
    310c:	0e 94 f2 0c 	call	0x19e4	; 0x19e4 <lcd_clear_cs2>
    3110:	e0 91 72 0c 	lds	r30, 0x0C72
    3114:	f0 e0       	ldi	r31, 0x00	; 0
    3116:	ee 0f       	add	r30, r30
    3118:	ff 1f       	adc	r31, r31
    311a:	ea 59       	subi	r30, 0x9A	; 154
    311c:	f3 4f       	sbci	r31, 0xF3	; 243
    311e:	80 81       	ld	r24, Z
    3120:	91 81       	ldd	r25, Z+1	; 0x01
    3122:	0e 94 3a 18 	call	0x3074	; 0x3074 <menu_draw>
    3126:	08 95       	ret

00003128 <menu_read_time>:
    3128:	0f 93       	push	r16
    312a:	1f 93       	push	r17
    312c:	df 93       	push	r29
    312e:	cf 93       	push	r28
    3130:	00 d0       	rcall	.+0      	; 0x3132 <menu_read_time+0xa>
    3132:	0f 92       	push	r0
    3134:	cd b7       	in	r28, 0x3d	; 61
    3136:	de b7       	in	r29, 0x3e	; 62
    3138:	82 e4       	ldi	r24, 0x42	; 66
    313a:	63 e0       	ldi	r22, 0x03	; 3
    313c:	0e 94 56 0e 	call	0x1cac	; 0x1cac <lcd_setpos>
    3140:	00 d0       	rcall	.+0      	; 0x3142 <menu_read_time+0x1a>
    3142:	00 d0       	rcall	.+0      	; 0x3144 <menu_read_time+0x1c>
    3144:	00 d0       	rcall	.+0      	; 0x3146 <menu_read_time+0x1e>
    3146:	ed b7       	in	r30, 0x3d	; 61
    3148:	fe b7       	in	r31, 0x3e	; 62
    314a:	31 96       	adiw	r30, 0x01	; 1
    314c:	8e 01       	movw	r16, r28
    314e:	0f 5f       	subi	r16, 0xFF	; 255
    3150:	1f 4f       	sbci	r17, 0xFF	; 255
    3152:	ad b7       	in	r26, 0x3d	; 61
    3154:	be b7       	in	r27, 0x3e	; 62
    3156:	12 96       	adiw	r26, 0x02	; 2
    3158:	1c 93       	st	X, r17
    315a:	0e 93       	st	-X, r16
    315c:	11 97       	sbiw	r26, 0x01	; 1
    315e:	8e e1       	ldi	r24, 0x1E	; 30
    3160:	91 e0       	ldi	r25, 0x01	; 1
    3162:	93 83       	std	Z+3, r25	; 0x03
    3164:	82 83       	std	Z+2, r24	; 0x02
    3166:	80 91 61 0c 	lds	r24, 0x0C61
    316a:	84 83       	std	Z+4, r24	; 0x04
    316c:	15 82       	std	Z+5, r1	; 0x05
    316e:	0e 94 f0 25 	call	0x4be0	; 0x4be0 <sprintf>
    3172:	8d b7       	in	r24, 0x3d	; 61
    3174:	9e b7       	in	r25, 0x3e	; 62
    3176:	06 96       	adiw	r24, 0x06	; 6
    3178:	0f b6       	in	r0, 0x3f	; 63
    317a:	f8 94       	cli
    317c:	9e bf       	out	0x3e, r25	; 62
    317e:	0f be       	out	0x3f, r0	; 63
    3180:	8d bf       	out	0x3d, r24	; 61
    3182:	80 91 67 0c 	lds	r24, 0x0C67
    3186:	88 23       	and	r24, r24
    3188:	19 f4       	brne	.+6      	; 0x3190 <menu_read_time+0x68>
    318a:	c8 01       	movw	r24, r16
    318c:	61 e0       	ldi	r22, 0x01	; 1
    318e:	02 c0       	rjmp	.+4      	; 0x3194 <menu_read_time+0x6c>
    3190:	c8 01       	movw	r24, r16
    3192:	60 e0       	ldi	r22, 0x00	; 0
    3194:	0e 94 dd 0d 	call	0x1bba	; 0x1bba <lcd_putstr>
    3198:	8a e3       	ldi	r24, 0x3A	; 58
    319a:	60 e0       	ldi	r22, 0x00	; 0
    319c:	0e 94 a3 0d 	call	0x1b46	; 0x1b46 <lcd_putc>
    31a0:	00 d0       	rcall	.+0      	; 0x31a2 <menu_read_time+0x7a>
    31a2:	00 d0       	rcall	.+0      	; 0x31a4 <menu_read_time+0x7c>
    31a4:	00 d0       	rcall	.+0      	; 0x31a6 <menu_read_time+0x7e>
    31a6:	ed b7       	in	r30, 0x3d	; 61
    31a8:	fe b7       	in	r31, 0x3e	; 62
    31aa:	31 96       	adiw	r30, 0x01	; 1
    31ac:	8e 01       	movw	r16, r28
    31ae:	0f 5f       	subi	r16, 0xFF	; 255
    31b0:	1f 4f       	sbci	r17, 0xFF	; 255
    31b2:	ad b7       	in	r26, 0x3d	; 61
    31b4:	be b7       	in	r27, 0x3e	; 62
    31b6:	12 96       	adiw	r26, 0x02	; 2
    31b8:	1c 93       	st	X, r17
    31ba:	0e 93       	st	-X, r16
    31bc:	11 97       	sbiw	r26, 0x01	; 1
    31be:	8e e1       	ldi	r24, 0x1E	; 30
    31c0:	91 e0       	ldi	r25, 0x01	; 1
    31c2:	93 83       	std	Z+3, r25	; 0x03
    31c4:	82 83       	std	Z+2, r24	; 0x02
    31c6:	80 91 62 0c 	lds	r24, 0x0C62
    31ca:	84 83       	std	Z+4, r24	; 0x04
    31cc:	15 82       	std	Z+5, r1	; 0x05
    31ce:	0e 94 f0 25 	call	0x4be0	; 0x4be0 <sprintf>
    31d2:	8d b7       	in	r24, 0x3d	; 61
    31d4:	9e b7       	in	r25, 0x3e	; 62
    31d6:	06 96       	adiw	r24, 0x06	; 6
    31d8:	0f b6       	in	r0, 0x3f	; 63
    31da:	f8 94       	cli
    31dc:	9e bf       	out	0x3e, r25	; 62
    31de:	0f be       	out	0x3f, r0	; 63
    31e0:	8d bf       	out	0x3d, r24	; 61
    31e2:	80 91 67 0c 	lds	r24, 0x0C67
    31e6:	81 30       	cpi	r24, 0x01	; 1
    31e8:	19 f4       	brne	.+6      	; 0x31f0 <menu_read_time+0xc8>
    31ea:	c8 01       	movw	r24, r16
    31ec:	61 e0       	ldi	r22, 0x01	; 1
    31ee:	02 c0       	rjmp	.+4      	; 0x31f4 <menu_read_time+0xcc>
    31f0:	c8 01       	movw	r24, r16
    31f2:	60 e0       	ldi	r22, 0x00	; 0
    31f4:	0e 94 dd 0d 	call	0x1bba	; 0x1bba <lcd_putstr>
    31f8:	8a e3       	ldi	r24, 0x3A	; 58
    31fa:	60 e0       	ldi	r22, 0x00	; 0
    31fc:	0e 94 a3 0d 	call	0x1b46	; 0x1b46 <lcd_putc>
    3200:	00 d0       	rcall	.+0      	; 0x3202 <menu_read_time+0xda>
    3202:	00 d0       	rcall	.+0      	; 0x3204 <menu_read_time+0xdc>
    3204:	00 d0       	rcall	.+0      	; 0x3206 <menu_read_time+0xde>
    3206:	ed b7       	in	r30, 0x3d	; 61
    3208:	fe b7       	in	r31, 0x3e	; 62
    320a:	31 96       	adiw	r30, 0x01	; 1
    320c:	8e 01       	movw	r16, r28
    320e:	0f 5f       	subi	r16, 0xFF	; 255
    3210:	1f 4f       	sbci	r17, 0xFF	; 255
    3212:	ad b7       	in	r26, 0x3d	; 61
    3214:	be b7       	in	r27, 0x3e	; 62
    3216:	12 96       	adiw	r26, 0x02	; 2
    3218:	1c 93       	st	X, r17
    321a:	0e 93       	st	-X, r16
    321c:	11 97       	sbiw	r26, 0x01	; 1
    321e:	8e e1       	ldi	r24, 0x1E	; 30
    3220:	91 e0       	ldi	r25, 0x01	; 1
    3222:	93 83       	std	Z+3, r25	; 0x03
    3224:	82 83       	std	Z+2, r24	; 0x02
    3226:	80 91 63 0c 	lds	r24, 0x0C63
    322a:	84 83       	std	Z+4, r24	; 0x04
    322c:	15 82       	std	Z+5, r1	; 0x05
    322e:	0e 94 f0 25 	call	0x4be0	; 0x4be0 <sprintf>
    3232:	8d b7       	in	r24, 0x3d	; 61
    3234:	9e b7       	in	r25, 0x3e	; 62
    3236:	06 96       	adiw	r24, 0x06	; 6
    3238:	0f b6       	in	r0, 0x3f	; 63
    323a:	f8 94       	cli
    323c:	9e bf       	out	0x3e, r25	; 62
    323e:	0f be       	out	0x3f, r0	; 63
    3240:	8d bf       	out	0x3d, r24	; 61
    3242:	80 91 67 0c 	lds	r24, 0x0C67
    3246:	82 30       	cpi	r24, 0x02	; 2
    3248:	19 f4       	brne	.+6      	; 0x3250 <menu_read_time+0x128>
    324a:	c8 01       	movw	r24, r16
    324c:	61 e0       	ldi	r22, 0x01	; 1
    324e:	02 c0       	rjmp	.+4      	; 0x3254 <menu_read_time+0x12c>
    3250:	c8 01       	movw	r24, r16
    3252:	60 e0       	ldi	r22, 0x00	; 0
    3254:	0e 94 dd 0d 	call	0x1bba	; 0x1bba <lcd_putstr>
    3258:	0e 94 37 0d 	call	0x1a6e	; 0x1a6e <lcd_redraw_cs2>
    325c:	0f 90       	pop	r0
    325e:	0f 90       	pop	r0
    3260:	0f 90       	pop	r0
    3262:	cf 91       	pop	r28
    3264:	df 91       	pop	r29
    3266:	1f 91       	pop	r17
    3268:	0f 91       	pop	r16
    326a:	08 95       	ret

0000326c <menu_show_time>:
    326c:	0f 93       	push	r16
    326e:	1f 93       	push	r17
    3270:	df 93       	push	r29
    3272:	cf 93       	push	r28
    3274:	cd b7       	in	r28, 0x3d	; 61
    3276:	de b7       	in	r29, 0x3e	; 62
    3278:	29 97       	sbiw	r28, 0x09	; 9
    327a:	0f b6       	in	r0, 0x3f	; 63
    327c:	f8 94       	cli
    327e:	de bf       	out	0x3e, r29	; 62
    3280:	0f be       	out	0x3f, r0	; 63
    3282:	cd bf       	out	0x3d, r28	; 61
    3284:	9c 01       	movw	r18, r24
    3286:	8d b7       	in	r24, 0x3d	; 61
    3288:	9e b7       	in	r25, 0x3e	; 62
    328a:	0a 97       	sbiw	r24, 0x0a	; 10
    328c:	0f b6       	in	r0, 0x3f	; 63
    328e:	f8 94       	cli
    3290:	9e bf       	out	0x3e, r25	; 62
    3292:	0f be       	out	0x3f, r0	; 63
    3294:	8d bf       	out	0x3d, r24	; 61
    3296:	ed b7       	in	r30, 0x3d	; 61
    3298:	fe b7       	in	r31, 0x3e	; 62
    329a:	31 96       	adiw	r30, 0x01	; 1
    329c:	8e 01       	movw	r16, r28
    329e:	0f 5f       	subi	r16, 0xFF	; 255
    32a0:	1f 4f       	sbci	r17, 0xFF	; 255
    32a2:	ad b7       	in	r26, 0x3d	; 61
    32a4:	be b7       	in	r27, 0x3e	; 62
    32a6:	12 96       	adiw	r26, 0x02	; 2
    32a8:	1c 93       	st	X, r17
    32aa:	0e 93       	st	-X, r16
    32ac:	11 97       	sbiw	r26, 0x01	; 1
    32ae:	84 e2       	ldi	r24, 0x24	; 36
    32b0:	91 e0       	ldi	r25, 0x01	; 1
    32b2:	93 83       	std	Z+3, r25	; 0x03
    32b4:	82 83       	std	Z+2, r24	; 0x02
    32b6:	d9 01       	movw	r26, r18
    32b8:	8c 91       	ld	r24, X
    32ba:	84 83       	std	Z+4, r24	; 0x04
    32bc:	15 82       	std	Z+5, r1	; 0x05
    32be:	11 96       	adiw	r26, 0x01	; 1
    32c0:	8c 91       	ld	r24, X
    32c2:	11 97       	sbiw	r26, 0x01	; 1
    32c4:	86 83       	std	Z+6, r24	; 0x06
    32c6:	17 82       	std	Z+7, r1	; 0x07
    32c8:	12 96       	adiw	r26, 0x02	; 2
    32ca:	8c 91       	ld	r24, X
    32cc:	80 87       	std	Z+8, r24	; 0x08
    32ce:	11 86       	std	Z+9, r1	; 0x09
    32d0:	0e 94 f0 25 	call	0x4be0	; 0x4be0 <sprintf>
    32d4:	8d b7       	in	r24, 0x3d	; 61
    32d6:	9e b7       	in	r25, 0x3e	; 62
    32d8:	0a 96       	adiw	r24, 0x0a	; 10
    32da:	0f b6       	in	r0, 0x3f	; 63
    32dc:	f8 94       	cli
    32de:	9e bf       	out	0x3e, r25	; 62
    32e0:	0f be       	out	0x3f, r0	; 63
    32e2:	8d bf       	out	0x3d, r24	; 61
    32e4:	82 e4       	ldi	r24, 0x42	; 66
    32e6:	63 e0       	ldi	r22, 0x03	; 3
    32e8:	0e 94 56 0e 	call	0x1cac	; 0x1cac <lcd_setpos>
    32ec:	c8 01       	movw	r24, r16
    32ee:	60 e0       	ldi	r22, 0x00	; 0
    32f0:	0e 94 dd 0d 	call	0x1bba	; 0x1bba <lcd_putstr>
    32f4:	29 96       	adiw	r28, 0x09	; 9
    32f6:	0f b6       	in	r0, 0x3f	; 63
    32f8:	f8 94       	cli
    32fa:	de bf       	out	0x3e, r29	; 62
    32fc:	0f be       	out	0x3f, r0	; 63
    32fe:	cd bf       	out	0x3d, r28	; 61
    3300:	cf 91       	pop	r28
    3302:	df 91       	pop	r29
    3304:	1f 91       	pop	r17
    3306:	0f 91       	pop	r16
    3308:	08 95       	ret

0000330a <menu_read_color>:
    330a:	df 92       	push	r13
    330c:	ef 92       	push	r14
    330e:	ff 92       	push	r15
    3310:	0f 93       	push	r16
    3312:	1f 93       	push	r17
    3314:	df 93       	push	r29
    3316:	cf 93       	push	r28
    3318:	cd b7       	in	r28, 0x3d	; 61
    331a:	de b7       	in	r29, 0x3e	; 62
    331c:	2b 97       	sbiw	r28, 0x0b	; 11
    331e:	0f b6       	in	r0, 0x3f	; 63
    3320:	f8 94       	cli
    3322:	de bf       	out	0x3e, r29	; 62
    3324:	0f be       	out	0x3f, r0	; 63
    3326:	cd bf       	out	0x3d, r28	; 61
    3328:	e0 91 72 0c 	lds	r30, 0x0C72
    332c:	a0 91 72 0c 	lds	r26, 0x0C72
    3330:	b0 e0       	ldi	r27, 0x00	; 0
    3332:	aa 0f       	add	r26, r26
    3334:	bb 1f       	adc	r27, r27
    3336:	aa 59       	subi	r26, 0x9A	; 154
    3338:	b3 4f       	sbci	r27, 0xF3	; 243
    333a:	0d 90       	ld	r0, X+
    333c:	bc 91       	ld	r27, X
    333e:	a0 2d       	mov	r26, r0
    3340:	2c 91       	ld	r18, X
    3342:	f0 e0       	ldi	r31, 0x00	; 0
    3344:	ee 0f       	add	r30, r30
    3346:	ff 1f       	adc	r31, r31
    3348:	ea 59       	subi	r30, 0x9A	; 154
    334a:	f3 4f       	sbci	r31, 0xF3	; 243
    334c:	01 90       	ld	r0, Z+
    334e:	f0 81       	ld	r31, Z
    3350:	e0 2d       	mov	r30, r0
    3352:	82 2f       	mov	r24, r18
    3354:	90 e0       	ldi	r25, 0x00	; 0
    3356:	9c 01       	movw	r18, r24
    3358:	22 0f       	add	r18, r18
    335a:	33 1f       	adc	r19, r19
    335c:	c9 01       	movw	r24, r18
    335e:	43 e0       	ldi	r20, 0x03	; 3
    3360:	88 0f       	add	r24, r24
    3362:	99 1f       	adc	r25, r25
    3364:	4a 95       	dec	r20
    3366:	e1 f7       	brne	.-8      	; 0x3360 <menu_read_color+0x56>
    3368:	82 1b       	sub	r24, r18
    336a:	93 0b       	sbc	r25, r19
    336c:	02 80       	ldd	r0, Z+2	; 0x02
    336e:	f3 81       	ldd	r31, Z+3	; 0x03
    3370:	e0 2d       	mov	r30, r0
    3372:	e8 0f       	add	r30, r24
    3374:	f9 1f       	adc	r31, r25
    3376:	04 85       	ldd	r16, Z+12	; 0x0c
    3378:	15 85       	ldd	r17, Z+13	; 0x0d
    337a:	e0 90 67 0c 	lds	r14, 0x0C67
    337e:	80 e4       	ldi	r24, 0x40	; 64
    3380:	61 e0       	ldi	r22, 0x01	; 1
    3382:	0e 94 56 0e 	call	0x1cac	; 0x1cac <lcd_setpos>
    3386:	00 d0       	rcall	.+0      	; 0x3388 <menu_read_color+0x7e>
    3388:	00 d0       	rcall	.+0      	; 0x338a <menu_read_color+0x80>
    338a:	00 d0       	rcall	.+0      	; 0x338c <menu_read_color+0x82>
    338c:	ed b7       	in	r30, 0x3d	; 61
    338e:	fe b7       	in	r31, 0x3e	; 62
    3390:	31 96       	adiw	r30, 0x01	; 1
    3392:	ce 01       	movw	r24, r28
    3394:	01 96       	adiw	r24, 0x01	; 1
    3396:	ad b7       	in	r26, 0x3d	; 61
    3398:	be b7       	in	r27, 0x3e	; 62
    339a:	12 96       	adiw	r26, 0x02	; 2
    339c:	9c 93       	st	X, r25
    339e:	8e 93       	st	-X, r24
    33a0:	11 97       	sbiw	r26, 0x01	; 1
    33a2:	84 e3       	ldi	r24, 0x34	; 52
    33a4:	91 e0       	ldi	r25, 0x01	; 1
    33a6:	93 83       	std	Z+3, r25	; 0x03
    33a8:	82 83       	std	Z+2, r24	; 0x02
    33aa:	d8 01       	movw	r26, r16
    33ac:	8c 91       	ld	r24, X
    33ae:	84 83       	std	Z+4, r24	; 0x04
    33b0:	15 82       	std	Z+5, r1	; 0x05
    33b2:	0e 94 f0 25 	call	0x4be0	; 0x4be0 <sprintf>
    33b6:	8d b7       	in	r24, 0x3d	; 61
    33b8:	9e b7       	in	r25, 0x3e	; 62
    33ba:	06 96       	adiw	r24, 0x06	; 6
    33bc:	0f b6       	in	r0, 0x3f	; 63
    33be:	f8 94       	cli
    33c0:	9e bf       	out	0x3e, r25	; 62
    33c2:	0f be       	out	0x3f, r0	; 63
    33c4:	8d bf       	out	0x3d, r24	; 61
    33c6:	61 e0       	ldi	r22, 0x01	; 1
    33c8:	e1 10       	cpse	r14, r1
    33ca:	60 e0       	ldi	r22, 0x00	; 0
    33cc:	7e 01       	movw	r14, r28
    33ce:	08 94       	sec
    33d0:	e1 1c       	adc	r14, r1
    33d2:	f1 1c       	adc	r15, r1
    33d4:	c7 01       	movw	r24, r14
    33d6:	0e 94 dd 0d 	call	0x1bba	; 0x1bba <lcd_putstr>
    33da:	d0 90 67 0c 	lds	r13, 0x0C67
    33de:	80 e4       	ldi	r24, 0x40	; 64
    33e0:	62 e0       	ldi	r22, 0x02	; 2
    33e2:	0e 94 56 0e 	call	0x1cac	; 0x1cac <lcd_setpos>
    33e6:	ad b7       	in	r26, 0x3d	; 61
    33e8:	be b7       	in	r27, 0x3e	; 62
    33ea:	18 97       	sbiw	r26, 0x08	; 8
    33ec:	0f b6       	in	r0, 0x3f	; 63
    33ee:	f8 94       	cli
    33f0:	be bf       	out	0x3e, r27	; 62
    33f2:	0f be       	out	0x3f, r0	; 63
    33f4:	ad bf       	out	0x3d, r26	; 61
    33f6:	ed b7       	in	r30, 0x3d	; 61
    33f8:	fe b7       	in	r31, 0x3e	; 62
    33fa:	31 96       	adiw	r30, 0x01	; 1
    33fc:	12 96       	adiw	r26, 0x02	; 2
    33fe:	fc 92       	st	X, r15
    3400:	ee 92       	st	-X, r14
    3402:	11 97       	sbiw	r26, 0x01	; 1
    3404:	8f e3       	ldi	r24, 0x3F	; 63
    3406:	91 e0       	ldi	r25, 0x01	; 1
    3408:	93 83       	std	Z+3, r25	; 0x03
    340a:	82 83       	std	Z+2, r24	; 0x02
    340c:	81 e8       	ldi	r24, 0x81	; 129
    340e:	90 e0       	ldi	r25, 0x00	; 0
    3410:	95 83       	std	Z+5, r25	; 0x05
    3412:	84 83       	std	Z+4, r24	; 0x04
    3414:	d8 01       	movw	r26, r16
    3416:	11 96       	adiw	r26, 0x01	; 1
    3418:	8c 91       	ld	r24, X
    341a:	86 83       	std	Z+6, r24	; 0x06
    341c:	17 82       	std	Z+7, r1	; 0x07
    341e:	0e 94 f0 25 	call	0x4be0	; 0x4be0 <sprintf>
    3422:	8d b7       	in	r24, 0x3d	; 61
    3424:	9e b7       	in	r25, 0x3e	; 62
    3426:	08 96       	adiw	r24, 0x08	; 8
    3428:	0f b6       	in	r0, 0x3f	; 63
    342a:	f8 94       	cli
    342c:	9e bf       	out	0x3e, r25	; 62
    342e:	0f be       	out	0x3f, r0	; 63
    3430:	8d bf       	out	0x3d, r24	; 61
    3432:	61 e0       	ldi	r22, 0x01	; 1
    3434:	9d 2d       	mov	r25, r13
    3436:	91 30       	cpi	r25, 0x01	; 1
    3438:	09 f0       	breq	.+2      	; 0x343c <menu_read_color+0x132>
    343a:	60 e0       	ldi	r22, 0x00	; 0
    343c:	7e 01       	movw	r14, r28
    343e:	08 94       	sec
    3440:	e1 1c       	adc	r14, r1
    3442:	f1 1c       	adc	r15, r1
    3444:	c7 01       	movw	r24, r14
    3446:	0e 94 dd 0d 	call	0x1bba	; 0x1bba <lcd_putstr>
    344a:	d0 90 67 0c 	lds	r13, 0x0C67
    344e:	80 e4       	ldi	r24, 0x40	; 64
    3450:	63 e0       	ldi	r22, 0x03	; 3
    3452:	0e 94 56 0e 	call	0x1cac	; 0x1cac <lcd_setpos>
    3456:	00 d0       	rcall	.+0      	; 0x3458 <menu_read_color+0x14e>
    3458:	00 d0       	rcall	.+0      	; 0x345a <menu_read_color+0x150>
    345a:	00 d0       	rcall	.+0      	; 0x345c <menu_read_color+0x152>
    345c:	ed b7       	in	r30, 0x3d	; 61
    345e:	fe b7       	in	r31, 0x3e	; 62
    3460:	31 96       	adiw	r30, 0x01	; 1
    3462:	ad b7       	in	r26, 0x3d	; 61
    3464:	be b7       	in	r27, 0x3e	; 62
    3466:	12 96       	adiw	r26, 0x02	; 2
    3468:	fc 92       	st	X, r15
    346a:	ee 92       	st	-X, r14
    346c:	11 97       	sbiw	r26, 0x01	; 1
    346e:	8c e4       	ldi	r24, 0x4C	; 76
    3470:	91 e0       	ldi	r25, 0x01	; 1
    3472:	93 83       	std	Z+3, r25	; 0x03
    3474:	82 83       	std	Z+2, r24	; 0x02
    3476:	d8 01       	movw	r26, r16
    3478:	12 96       	adiw	r26, 0x02	; 2
    347a:	8c 91       	ld	r24, X
    347c:	84 83       	std	Z+4, r24	; 0x04
    347e:	15 82       	std	Z+5, r1	; 0x05
    3480:	0e 94 f0 25 	call	0x4be0	; 0x4be0 <sprintf>
    3484:	8d b7       	in	r24, 0x3d	; 61
    3486:	9e b7       	in	r25, 0x3e	; 62
    3488:	06 96       	adiw	r24, 0x06	; 6
    348a:	0f b6       	in	r0, 0x3f	; 63
    348c:	f8 94       	cli
    348e:	9e bf       	out	0x3e, r25	; 62
    3490:	0f be       	out	0x3f, r0	; 63
    3492:	8d bf       	out	0x3d, r24	; 61
    3494:	61 e0       	ldi	r22, 0x01	; 1
    3496:	9d 2d       	mov	r25, r13
    3498:	92 30       	cpi	r25, 0x02	; 2
    349a:	09 f0       	breq	.+2      	; 0x349e <menu_read_color+0x194>
    349c:	60 e0       	ldi	r22, 0x00	; 0
    349e:	ce 01       	movw	r24, r28
    34a0:	01 96       	adiw	r24, 0x01	; 1
    34a2:	0e 94 dd 0d 	call	0x1bba	; 0x1bba <lcd_putstr>
    34a6:	0e 94 37 0d 	call	0x1a6e	; 0x1a6e <lcd_redraw_cs2>
    34aa:	2b 96       	adiw	r28, 0x0b	; 11
    34ac:	0f b6       	in	r0, 0x3f	; 63
    34ae:	f8 94       	cli
    34b0:	de bf       	out	0x3e, r29	; 62
    34b2:	0f be       	out	0x3f, r0	; 63
    34b4:	cd bf       	out	0x3d, r28	; 61
    34b6:	cf 91       	pop	r28
    34b8:	df 91       	pop	r29
    34ba:	1f 91       	pop	r17
    34bc:	0f 91       	pop	r16
    34be:	ff 90       	pop	r15
    34c0:	ef 90       	pop	r14
    34c2:	df 90       	pop	r13
    34c4:	08 95       	ret

000034c6 <menu_show_color>:
    34c6:	ef 92       	push	r14
    34c8:	ff 92       	push	r15
    34ca:	0f 93       	push	r16
    34cc:	1f 93       	push	r17
    34ce:	df 93       	push	r29
    34d0:	cf 93       	push	r28
    34d2:	cd b7       	in	r28, 0x3d	; 61
    34d4:	de b7       	in	r29, 0x3e	; 62
    34d6:	2b 97       	sbiw	r28, 0x0b	; 11
    34d8:	0f b6       	in	r0, 0x3f	; 63
    34da:	f8 94       	cli
    34dc:	de bf       	out	0x3e, r29	; 62
    34de:	0f be       	out	0x3f, r0	; 63
    34e0:	cd bf       	out	0x3d, r28	; 61
    34e2:	7c 01       	movw	r14, r24
    34e4:	80 e4       	ldi	r24, 0x40	; 64
    34e6:	61 e0       	ldi	r22, 0x01	; 1
    34e8:	0e 94 56 0e 	call	0x1cac	; 0x1cac <lcd_setpos>
    34ec:	00 d0       	rcall	.+0      	; 0x34ee <menu_show_color+0x28>
    34ee:	00 d0       	rcall	.+0      	; 0x34f0 <menu_show_color+0x2a>
    34f0:	00 d0       	rcall	.+0      	; 0x34f2 <menu_show_color+0x2c>
    34f2:	ed b7       	in	r30, 0x3d	; 61
    34f4:	fe b7       	in	r31, 0x3e	; 62
    34f6:	31 96       	adiw	r30, 0x01	; 1
    34f8:	8e 01       	movw	r16, r28
    34fa:	0f 5f       	subi	r16, 0xFF	; 255
    34fc:	1f 4f       	sbci	r17, 0xFF	; 255
    34fe:	ad b7       	in	r26, 0x3d	; 61
    3500:	be b7       	in	r27, 0x3e	; 62
    3502:	12 96       	adiw	r26, 0x02	; 2
    3504:	1c 93       	st	X, r17
    3506:	0e 93       	st	-X, r16
    3508:	11 97       	sbiw	r26, 0x01	; 1
    350a:	84 e3       	ldi	r24, 0x34	; 52
    350c:	91 e0       	ldi	r25, 0x01	; 1
    350e:	93 83       	std	Z+3, r25	; 0x03
    3510:	82 83       	std	Z+2, r24	; 0x02
    3512:	d7 01       	movw	r26, r14
    3514:	8c 91       	ld	r24, X
    3516:	84 83       	std	Z+4, r24	; 0x04
    3518:	15 82       	std	Z+5, r1	; 0x05
    351a:	0e 94 f0 25 	call	0x4be0	; 0x4be0 <sprintf>
    351e:	8d b7       	in	r24, 0x3d	; 61
    3520:	9e b7       	in	r25, 0x3e	; 62
    3522:	06 96       	adiw	r24, 0x06	; 6
    3524:	0f b6       	in	r0, 0x3f	; 63
    3526:	f8 94       	cli
    3528:	9e bf       	out	0x3e, r25	; 62
    352a:	0f be       	out	0x3f, r0	; 63
    352c:	8d bf       	out	0x3d, r24	; 61
    352e:	c8 01       	movw	r24, r16
    3530:	60 e0       	ldi	r22, 0x00	; 0
    3532:	0e 94 dd 0d 	call	0x1bba	; 0x1bba <lcd_putstr>
    3536:	80 e4       	ldi	r24, 0x40	; 64
    3538:	62 e0       	ldi	r22, 0x02	; 2
    353a:	0e 94 56 0e 	call	0x1cac	; 0x1cac <lcd_setpos>
    353e:	ad b7       	in	r26, 0x3d	; 61
    3540:	be b7       	in	r27, 0x3e	; 62
    3542:	18 97       	sbiw	r26, 0x08	; 8
    3544:	0f b6       	in	r0, 0x3f	; 63
    3546:	f8 94       	cli
    3548:	be bf       	out	0x3e, r27	; 62
    354a:	0f be       	out	0x3f, r0	; 63
    354c:	ad bf       	out	0x3d, r26	; 61
    354e:	ed b7       	in	r30, 0x3d	; 61
    3550:	fe b7       	in	r31, 0x3e	; 62
    3552:	31 96       	adiw	r30, 0x01	; 1
    3554:	12 96       	adiw	r26, 0x02	; 2
    3556:	1c 93       	st	X, r17
    3558:	0e 93       	st	-X, r16
    355a:	11 97       	sbiw	r26, 0x01	; 1
    355c:	8f e3       	ldi	r24, 0x3F	; 63
    355e:	91 e0       	ldi	r25, 0x01	; 1
    3560:	93 83       	std	Z+3, r25	; 0x03
    3562:	82 83       	std	Z+2, r24	; 0x02
    3564:	81 e8       	ldi	r24, 0x81	; 129
    3566:	90 e0       	ldi	r25, 0x00	; 0
    3568:	95 83       	std	Z+5, r25	; 0x05
    356a:	84 83       	std	Z+4, r24	; 0x04
    356c:	d7 01       	movw	r26, r14
    356e:	11 96       	adiw	r26, 0x01	; 1
    3570:	8c 91       	ld	r24, X
    3572:	86 83       	std	Z+6, r24	; 0x06
    3574:	17 82       	std	Z+7, r1	; 0x07
    3576:	0e 94 f0 25 	call	0x4be0	; 0x4be0 <sprintf>
    357a:	8d b7       	in	r24, 0x3d	; 61
    357c:	9e b7       	in	r25, 0x3e	; 62
    357e:	08 96       	adiw	r24, 0x08	; 8
    3580:	0f b6       	in	r0, 0x3f	; 63
    3582:	f8 94       	cli
    3584:	9e bf       	out	0x3e, r25	; 62
    3586:	0f be       	out	0x3f, r0	; 63
    3588:	8d bf       	out	0x3d, r24	; 61
    358a:	c8 01       	movw	r24, r16
    358c:	60 e0       	ldi	r22, 0x00	; 0
    358e:	0e 94 dd 0d 	call	0x1bba	; 0x1bba <lcd_putstr>
    3592:	80 e4       	ldi	r24, 0x40	; 64
    3594:	63 e0       	ldi	r22, 0x03	; 3
    3596:	0e 94 56 0e 	call	0x1cac	; 0x1cac <lcd_setpos>
    359a:	00 d0       	rcall	.+0      	; 0x359c <menu_show_color+0xd6>
    359c:	00 d0       	rcall	.+0      	; 0x359e <menu_show_color+0xd8>
    359e:	00 d0       	rcall	.+0      	; 0x35a0 <menu_show_color+0xda>
    35a0:	ed b7       	in	r30, 0x3d	; 61
    35a2:	fe b7       	in	r31, 0x3e	; 62
    35a4:	31 96       	adiw	r30, 0x01	; 1
    35a6:	ad b7       	in	r26, 0x3d	; 61
    35a8:	be b7       	in	r27, 0x3e	; 62
    35aa:	12 96       	adiw	r26, 0x02	; 2
    35ac:	1c 93       	st	X, r17
    35ae:	0e 93       	st	-X, r16
    35b0:	11 97       	sbiw	r26, 0x01	; 1
    35b2:	8c e4       	ldi	r24, 0x4C	; 76
    35b4:	91 e0       	ldi	r25, 0x01	; 1
    35b6:	93 83       	std	Z+3, r25	; 0x03
    35b8:	82 83       	std	Z+2, r24	; 0x02
    35ba:	d7 01       	movw	r26, r14
    35bc:	12 96       	adiw	r26, 0x02	; 2
    35be:	8c 91       	ld	r24, X
    35c0:	84 83       	std	Z+4, r24	; 0x04
    35c2:	15 82       	std	Z+5, r1	; 0x05
    35c4:	0e 94 f0 25 	call	0x4be0	; 0x4be0 <sprintf>
    35c8:	8d b7       	in	r24, 0x3d	; 61
    35ca:	9e b7       	in	r25, 0x3e	; 62
    35cc:	06 96       	adiw	r24, 0x06	; 6
    35ce:	0f b6       	in	r0, 0x3f	; 63
    35d0:	f8 94       	cli
    35d2:	9e bf       	out	0x3e, r25	; 62
    35d4:	0f be       	out	0x3f, r0	; 63
    35d6:	8d bf       	out	0x3d, r24	; 61
    35d8:	c8 01       	movw	r24, r16
    35da:	60 e0       	ldi	r22, 0x00	; 0
    35dc:	0e 94 dd 0d 	call	0x1bba	; 0x1bba <lcd_putstr>
    35e0:	2b 96       	adiw	r28, 0x0b	; 11
    35e2:	0f b6       	in	r0, 0x3f	; 63
    35e4:	f8 94       	cli
    35e6:	de bf       	out	0x3e, r29	; 62
    35e8:	0f be       	out	0x3f, r0	; 63
    35ea:	cd bf       	out	0x3d, r28	; 61
    35ec:	cf 91       	pop	r28
    35ee:	df 91       	pop	r29
    35f0:	1f 91       	pop	r17
    35f2:	0f 91       	pop	r16
    35f4:	ff 90       	pop	r15
    35f6:	ef 90       	pop	r14
    35f8:	08 95       	ret

000035fa <menu_show_hand>:
    35fa:	ef 92       	push	r14
    35fc:	ff 92       	push	r15
    35fe:	0f 93       	push	r16
    3600:	1f 93       	push	r17
    3602:	df 93       	push	r29
    3604:	cf 93       	push	r28
    3606:	cd b7       	in	r28, 0x3d	; 61
    3608:	de b7       	in	r29, 0x3e	; 62
    360a:	2b 97       	sbiw	r28, 0x0b	; 11
    360c:	0f b6       	in	r0, 0x3f	; 63
    360e:	f8 94       	cli
    3610:	de bf       	out	0x3e, r29	; 62
    3612:	0f be       	out	0x3f, r0	; 63
    3614:	cd bf       	out	0x3d, r28	; 61
    3616:	7c 01       	movw	r14, r24
    3618:	80 e4       	ldi	r24, 0x40	; 64
    361a:	61 e0       	ldi	r22, 0x01	; 1
    361c:	0e 94 56 0e 	call	0x1cac	; 0x1cac <lcd_setpos>
    3620:	00 d0       	rcall	.+0      	; 0x3622 <menu_show_hand+0x28>
    3622:	00 d0       	rcall	.+0      	; 0x3624 <menu_show_hand+0x2a>
    3624:	00 d0       	rcall	.+0      	; 0x3626 <menu_show_hand+0x2c>
    3626:	ed b7       	in	r30, 0x3d	; 61
    3628:	fe b7       	in	r31, 0x3e	; 62
    362a:	31 96       	adiw	r30, 0x01	; 1
    362c:	8e 01       	movw	r16, r28
    362e:	0f 5f       	subi	r16, 0xFF	; 255
    3630:	1f 4f       	sbci	r17, 0xFF	; 255
    3632:	ad b7       	in	r26, 0x3d	; 61
    3634:	be b7       	in	r27, 0x3e	; 62
    3636:	12 96       	adiw	r26, 0x02	; 2
    3638:	1c 93       	st	X, r17
    363a:	0e 93       	st	-X, r16
    363c:	11 97       	sbiw	r26, 0x01	; 1
    363e:	84 e3       	ldi	r24, 0x34	; 52
    3640:	91 e0       	ldi	r25, 0x01	; 1
    3642:	93 83       	std	Z+3, r25	; 0x03
    3644:	82 83       	std	Z+2, r24	; 0x02
    3646:	d7 01       	movw	r26, r14
    3648:	8c 91       	ld	r24, X
    364a:	84 83       	std	Z+4, r24	; 0x04
    364c:	15 82       	std	Z+5, r1	; 0x05
    364e:	0e 94 f0 25 	call	0x4be0	; 0x4be0 <sprintf>
    3652:	8d b7       	in	r24, 0x3d	; 61
    3654:	9e b7       	in	r25, 0x3e	; 62
    3656:	06 96       	adiw	r24, 0x06	; 6
    3658:	0f b6       	in	r0, 0x3f	; 63
    365a:	f8 94       	cli
    365c:	9e bf       	out	0x3e, r25	; 62
    365e:	0f be       	out	0x3f, r0	; 63
    3660:	8d bf       	out	0x3d, r24	; 61
    3662:	c8 01       	movw	r24, r16
    3664:	60 e0       	ldi	r22, 0x00	; 0
    3666:	0e 94 dd 0d 	call	0x1bba	; 0x1bba <lcd_putstr>
    366a:	80 e4       	ldi	r24, 0x40	; 64
    366c:	62 e0       	ldi	r22, 0x02	; 2
    366e:	0e 94 56 0e 	call	0x1cac	; 0x1cac <lcd_setpos>
    3672:	ad b7       	in	r26, 0x3d	; 61
    3674:	be b7       	in	r27, 0x3e	; 62
    3676:	18 97       	sbiw	r26, 0x08	; 8
    3678:	0f b6       	in	r0, 0x3f	; 63
    367a:	f8 94       	cli
    367c:	be bf       	out	0x3e, r27	; 62
    367e:	0f be       	out	0x3f, r0	; 63
    3680:	ad bf       	out	0x3d, r26	; 61
    3682:	ed b7       	in	r30, 0x3d	; 61
    3684:	fe b7       	in	r31, 0x3e	; 62
    3686:	31 96       	adiw	r30, 0x01	; 1
    3688:	12 96       	adiw	r26, 0x02	; 2
    368a:	1c 93       	st	X, r17
    368c:	0e 93       	st	-X, r16
    368e:	11 97       	sbiw	r26, 0x01	; 1
    3690:	8f e3       	ldi	r24, 0x3F	; 63
    3692:	91 e0       	ldi	r25, 0x01	; 1
    3694:	93 83       	std	Z+3, r25	; 0x03
    3696:	82 83       	std	Z+2, r24	; 0x02
    3698:	81 e8       	ldi	r24, 0x81	; 129
    369a:	90 e0       	ldi	r25, 0x00	; 0
    369c:	95 83       	std	Z+5, r25	; 0x05
    369e:	84 83       	std	Z+4, r24	; 0x04
    36a0:	d7 01       	movw	r26, r14
    36a2:	11 96       	adiw	r26, 0x01	; 1
    36a4:	8c 91       	ld	r24, X
    36a6:	86 83       	std	Z+6, r24	; 0x06
    36a8:	17 82       	std	Z+7, r1	; 0x07
    36aa:	0e 94 f0 25 	call	0x4be0	; 0x4be0 <sprintf>
    36ae:	8d b7       	in	r24, 0x3d	; 61
    36b0:	9e b7       	in	r25, 0x3e	; 62
    36b2:	08 96       	adiw	r24, 0x08	; 8
    36b4:	0f b6       	in	r0, 0x3f	; 63
    36b6:	f8 94       	cli
    36b8:	9e bf       	out	0x3e, r25	; 62
    36ba:	0f be       	out	0x3f, r0	; 63
    36bc:	8d bf       	out	0x3d, r24	; 61
    36be:	c8 01       	movw	r24, r16
    36c0:	60 e0       	ldi	r22, 0x00	; 0
    36c2:	0e 94 dd 0d 	call	0x1bba	; 0x1bba <lcd_putstr>
    36c6:	80 e4       	ldi	r24, 0x40	; 64
    36c8:	63 e0       	ldi	r22, 0x03	; 3
    36ca:	0e 94 56 0e 	call	0x1cac	; 0x1cac <lcd_setpos>
    36ce:	00 d0       	rcall	.+0      	; 0x36d0 <menu_show_hand+0xd6>
    36d0:	00 d0       	rcall	.+0      	; 0x36d2 <menu_show_hand+0xd8>
    36d2:	00 d0       	rcall	.+0      	; 0x36d4 <menu_show_hand+0xda>
    36d4:	ed b7       	in	r30, 0x3d	; 61
    36d6:	fe b7       	in	r31, 0x3e	; 62
    36d8:	31 96       	adiw	r30, 0x01	; 1
    36da:	ad b7       	in	r26, 0x3d	; 61
    36dc:	be b7       	in	r27, 0x3e	; 62
    36de:	12 96       	adiw	r26, 0x02	; 2
    36e0:	1c 93       	st	X, r17
    36e2:	0e 93       	st	-X, r16
    36e4:	11 97       	sbiw	r26, 0x01	; 1
    36e6:	8c e4       	ldi	r24, 0x4C	; 76
    36e8:	91 e0       	ldi	r25, 0x01	; 1
    36ea:	93 83       	std	Z+3, r25	; 0x03
    36ec:	82 83       	std	Z+2, r24	; 0x02
    36ee:	d7 01       	movw	r26, r14
    36f0:	12 96       	adiw	r26, 0x02	; 2
    36f2:	8c 91       	ld	r24, X
    36f4:	84 83       	std	Z+4, r24	; 0x04
    36f6:	15 82       	std	Z+5, r1	; 0x05
    36f8:	0e 94 f0 25 	call	0x4be0	; 0x4be0 <sprintf>
    36fc:	8d b7       	in	r24, 0x3d	; 61
    36fe:	9e b7       	in	r25, 0x3e	; 62
    3700:	06 96       	adiw	r24, 0x06	; 6
    3702:	0f b6       	in	r0, 0x3f	; 63
    3704:	f8 94       	cli
    3706:	9e bf       	out	0x3e, r25	; 62
    3708:	0f be       	out	0x3f, r0	; 63
    370a:	8d bf       	out	0x3d, r24	; 61
    370c:	c8 01       	movw	r24, r16
    370e:	60 e0       	ldi	r22, 0x00	; 0
    3710:	0e 94 dd 0d 	call	0x1bba	; 0x1bba <lcd_putstr>
    3714:	80 e4       	ldi	r24, 0x40	; 64
    3716:	64 e0       	ldi	r22, 0x04	; 4
    3718:	0e 94 56 0e 	call	0x1cac	; 0x1cac <lcd_setpos>
    371c:	00 d0       	rcall	.+0      	; 0x371e <menu_show_hand+0x124>
    371e:	00 d0       	rcall	.+0      	; 0x3720 <menu_show_hand+0x126>
    3720:	00 d0       	rcall	.+0      	; 0x3722 <menu_show_hand+0x128>
    3722:	ed b7       	in	r30, 0x3d	; 61
    3724:	fe b7       	in	r31, 0x3e	; 62
    3726:	31 96       	adiw	r30, 0x01	; 1
    3728:	ad b7       	in	r26, 0x3d	; 61
    372a:	be b7       	in	r27, 0x3e	; 62
    372c:	12 96       	adiw	r26, 0x02	; 2
    372e:	1c 93       	st	X, r17
    3730:	0e 93       	st	-X, r16
    3732:	11 97       	sbiw	r26, 0x01	; 1
    3734:	88 e5       	ldi	r24, 0x58	; 88
    3736:	91 e0       	ldi	r25, 0x01	; 1
    3738:	93 83       	std	Z+3, r25	; 0x03
    373a:	82 83       	std	Z+2, r24	; 0x02
    373c:	d7 01       	movw	r26, r14
    373e:	14 96       	adiw	r26, 0x04	; 4
    3740:	8c 91       	ld	r24, X
    3742:	84 83       	std	Z+4, r24	; 0x04
    3744:	15 82       	std	Z+5, r1	; 0x05
    3746:	0e 94 f0 25 	call	0x4be0	; 0x4be0 <sprintf>
    374a:	8d b7       	in	r24, 0x3d	; 61
    374c:	9e b7       	in	r25, 0x3e	; 62
    374e:	06 96       	adiw	r24, 0x06	; 6
    3750:	0f b6       	in	r0, 0x3f	; 63
    3752:	f8 94       	cli
    3754:	9e bf       	out	0x3e, r25	; 62
    3756:	0f be       	out	0x3f, r0	; 63
    3758:	8d bf       	out	0x3d, r24	; 61
    375a:	c8 01       	movw	r24, r16
    375c:	60 e0       	ldi	r22, 0x00	; 0
    375e:	0e 94 dd 0d 	call	0x1bba	; 0x1bba <lcd_putstr>
    3762:	80 e4       	ldi	r24, 0x40	; 64
    3764:	65 e0       	ldi	r22, 0x05	; 5
    3766:	0e 94 56 0e 	call	0x1cac	; 0x1cac <lcd_setpos>
    376a:	00 d0       	rcall	.+0      	; 0x376c <menu_show_hand+0x172>
    376c:	00 d0       	rcall	.+0      	; 0x376e <menu_show_hand+0x174>
    376e:	00 d0       	rcall	.+0      	; 0x3770 <menu_show_hand+0x176>
    3770:	ed b7       	in	r30, 0x3d	; 61
    3772:	fe b7       	in	r31, 0x3e	; 62
    3774:	31 96       	adiw	r30, 0x01	; 1
    3776:	ad b7       	in	r26, 0x3d	; 61
    3778:	be b7       	in	r27, 0x3e	; 62
    377a:	12 96       	adiw	r26, 0x02	; 2
    377c:	1c 93       	st	X, r17
    377e:	0e 93       	st	-X, r16
    3780:	11 97       	sbiw	r26, 0x01	; 1
    3782:	83 e6       	ldi	r24, 0x63	; 99
    3784:	91 e0       	ldi	r25, 0x01	; 1
    3786:	93 83       	std	Z+3, r25	; 0x03
    3788:	82 83       	std	Z+2, r24	; 0x02
    378a:	d7 01       	movw	r26, r14
    378c:	13 96       	adiw	r26, 0x03	; 3
    378e:	8c 91       	ld	r24, X
    3790:	84 83       	std	Z+4, r24	; 0x04
    3792:	15 82       	std	Z+5, r1	; 0x05
    3794:	0e 94 f0 25 	call	0x4be0	; 0x4be0 <sprintf>
    3798:	8d b7       	in	r24, 0x3d	; 61
    379a:	9e b7       	in	r25, 0x3e	; 62
    379c:	06 96       	adiw	r24, 0x06	; 6
    379e:	0f b6       	in	r0, 0x3f	; 63
    37a0:	f8 94       	cli
    37a2:	9e bf       	out	0x3e, r25	; 62
    37a4:	0f be       	out	0x3f, r0	; 63
    37a6:	8d bf       	out	0x3d, r24	; 61
    37a8:	c8 01       	movw	r24, r16
    37aa:	60 e0       	ldi	r22, 0x00	; 0
    37ac:	0e 94 dd 0d 	call	0x1bba	; 0x1bba <lcd_putstr>
    37b0:	2b 96       	adiw	r28, 0x0b	; 11
    37b2:	0f b6       	in	r0, 0x3f	; 63
    37b4:	f8 94       	cli
    37b6:	de bf       	out	0x3e, r29	; 62
    37b8:	0f be       	out	0x3f, r0	; 63
    37ba:	cd bf       	out	0x3d, r28	; 61
    37bc:	cf 91       	pop	r28
    37be:	df 91       	pop	r29
    37c0:	1f 91       	pop	r17
    37c2:	0f 91       	pop	r16
    37c4:	ff 90       	pop	r15
    37c6:	ef 90       	pop	r14
    37c8:	08 95       	ret

000037ca <menu_read_hand>:
    37ca:	df 92       	push	r13
    37cc:	ef 92       	push	r14
    37ce:	ff 92       	push	r15
    37d0:	0f 93       	push	r16
    37d2:	1f 93       	push	r17
    37d4:	df 93       	push	r29
    37d6:	cf 93       	push	r28
    37d8:	cd b7       	in	r28, 0x3d	; 61
    37da:	de b7       	in	r29, 0x3e	; 62
    37dc:	2b 97       	sbiw	r28, 0x0b	; 11
    37de:	0f b6       	in	r0, 0x3f	; 63
    37e0:	f8 94       	cli
    37e2:	de bf       	out	0x3e, r29	; 62
    37e4:	0f be       	out	0x3f, r0	; 63
    37e6:	cd bf       	out	0x3d, r28	; 61
    37e8:	e0 91 72 0c 	lds	r30, 0x0C72
    37ec:	a0 91 72 0c 	lds	r26, 0x0C72
    37f0:	b0 e0       	ldi	r27, 0x00	; 0
    37f2:	aa 0f       	add	r26, r26
    37f4:	bb 1f       	adc	r27, r27
    37f6:	aa 59       	subi	r26, 0x9A	; 154
    37f8:	b3 4f       	sbci	r27, 0xF3	; 243
    37fa:	0d 90       	ld	r0, X+
    37fc:	bc 91       	ld	r27, X
    37fe:	a0 2d       	mov	r26, r0
    3800:	2c 91       	ld	r18, X
    3802:	f0 e0       	ldi	r31, 0x00	; 0
    3804:	ee 0f       	add	r30, r30
    3806:	ff 1f       	adc	r31, r31
    3808:	ea 59       	subi	r30, 0x9A	; 154
    380a:	f3 4f       	sbci	r31, 0xF3	; 243
    380c:	01 90       	ld	r0, Z+
    380e:	f0 81       	ld	r31, Z
    3810:	e0 2d       	mov	r30, r0
    3812:	82 2f       	mov	r24, r18
    3814:	90 e0       	ldi	r25, 0x00	; 0
    3816:	9c 01       	movw	r18, r24
    3818:	22 0f       	add	r18, r18
    381a:	33 1f       	adc	r19, r19
    381c:	c9 01       	movw	r24, r18
    381e:	a3 e0       	ldi	r26, 0x03	; 3
    3820:	88 0f       	add	r24, r24
    3822:	99 1f       	adc	r25, r25
    3824:	aa 95       	dec	r26
    3826:	e1 f7       	brne	.-8      	; 0x3820 <menu_read_hand+0x56>
    3828:	82 1b       	sub	r24, r18
    382a:	93 0b       	sbc	r25, r19
    382c:	02 80       	ldd	r0, Z+2	; 0x02
    382e:	f3 81       	ldd	r31, Z+3	; 0x03
    3830:	e0 2d       	mov	r30, r0
    3832:	e8 0f       	add	r30, r24
    3834:	f9 1f       	adc	r31, r25
    3836:	04 85       	ldd	r16, Z+12	; 0x0c
    3838:	15 85       	ldd	r17, Z+13	; 0x0d
    383a:	e0 90 67 0c 	lds	r14, 0x0C67
    383e:	80 e4       	ldi	r24, 0x40	; 64
    3840:	61 e0       	ldi	r22, 0x01	; 1
    3842:	0e 94 56 0e 	call	0x1cac	; 0x1cac <lcd_setpos>
    3846:	00 d0       	rcall	.+0      	; 0x3848 <menu_read_hand+0x7e>
    3848:	00 d0       	rcall	.+0      	; 0x384a <menu_read_hand+0x80>
    384a:	00 d0       	rcall	.+0      	; 0x384c <menu_read_hand+0x82>
    384c:	ed b7       	in	r30, 0x3d	; 61
    384e:	fe b7       	in	r31, 0x3e	; 62
    3850:	31 96       	adiw	r30, 0x01	; 1
    3852:	ce 01       	movw	r24, r28
    3854:	01 96       	adiw	r24, 0x01	; 1
    3856:	ad b7       	in	r26, 0x3d	; 61
    3858:	be b7       	in	r27, 0x3e	; 62
    385a:	12 96       	adiw	r26, 0x02	; 2
    385c:	9c 93       	st	X, r25
    385e:	8e 93       	st	-X, r24
    3860:	11 97       	sbiw	r26, 0x01	; 1
    3862:	84 e3       	ldi	r24, 0x34	; 52
    3864:	91 e0       	ldi	r25, 0x01	; 1
    3866:	93 83       	std	Z+3, r25	; 0x03
    3868:	82 83       	std	Z+2, r24	; 0x02
    386a:	d8 01       	movw	r26, r16
    386c:	8c 91       	ld	r24, X
    386e:	84 83       	std	Z+4, r24	; 0x04
    3870:	15 82       	std	Z+5, r1	; 0x05
    3872:	0e 94 f0 25 	call	0x4be0	; 0x4be0 <sprintf>
    3876:	8d b7       	in	r24, 0x3d	; 61
    3878:	9e b7       	in	r25, 0x3e	; 62
    387a:	06 96       	adiw	r24, 0x06	; 6
    387c:	0f b6       	in	r0, 0x3f	; 63
    387e:	f8 94       	cli
    3880:	9e bf       	out	0x3e, r25	; 62
    3882:	0f be       	out	0x3f, r0	; 63
    3884:	8d bf       	out	0x3d, r24	; 61
    3886:	61 e0       	ldi	r22, 0x01	; 1
    3888:	e1 10       	cpse	r14, r1
    388a:	60 e0       	ldi	r22, 0x00	; 0
    388c:	7e 01       	movw	r14, r28
    388e:	08 94       	sec
    3890:	e1 1c       	adc	r14, r1
    3892:	f1 1c       	adc	r15, r1
    3894:	c7 01       	movw	r24, r14
    3896:	0e 94 dd 0d 	call	0x1bba	; 0x1bba <lcd_putstr>
    389a:	d0 90 67 0c 	lds	r13, 0x0C67
    389e:	80 e4       	ldi	r24, 0x40	; 64
    38a0:	62 e0       	ldi	r22, 0x02	; 2
    38a2:	0e 94 56 0e 	call	0x1cac	; 0x1cac <lcd_setpos>
    38a6:	ad b7       	in	r26, 0x3d	; 61
    38a8:	be b7       	in	r27, 0x3e	; 62
    38aa:	18 97       	sbiw	r26, 0x08	; 8
    38ac:	0f b6       	in	r0, 0x3f	; 63
    38ae:	f8 94       	cli
    38b0:	be bf       	out	0x3e, r27	; 62
    38b2:	0f be       	out	0x3f, r0	; 63
    38b4:	ad bf       	out	0x3d, r26	; 61
    38b6:	ed b7       	in	r30, 0x3d	; 61
    38b8:	fe b7       	in	r31, 0x3e	; 62
    38ba:	31 96       	adiw	r30, 0x01	; 1
    38bc:	12 96       	adiw	r26, 0x02	; 2
    38be:	fc 92       	st	X, r15
    38c0:	ee 92       	st	-X, r14
    38c2:	11 97       	sbiw	r26, 0x01	; 1
    38c4:	8f e3       	ldi	r24, 0x3F	; 63
    38c6:	91 e0       	ldi	r25, 0x01	; 1
    38c8:	93 83       	std	Z+3, r25	; 0x03
    38ca:	82 83       	std	Z+2, r24	; 0x02
    38cc:	81 e8       	ldi	r24, 0x81	; 129
    38ce:	90 e0       	ldi	r25, 0x00	; 0
    38d0:	95 83       	std	Z+5, r25	; 0x05
    38d2:	84 83       	std	Z+4, r24	; 0x04
    38d4:	d8 01       	movw	r26, r16
    38d6:	11 96       	adiw	r26, 0x01	; 1
    38d8:	8c 91       	ld	r24, X
    38da:	86 83       	std	Z+6, r24	; 0x06
    38dc:	17 82       	std	Z+7, r1	; 0x07
    38de:	0e 94 f0 25 	call	0x4be0	; 0x4be0 <sprintf>
    38e2:	8d b7       	in	r24, 0x3d	; 61
    38e4:	9e b7       	in	r25, 0x3e	; 62
    38e6:	08 96       	adiw	r24, 0x08	; 8
    38e8:	0f b6       	in	r0, 0x3f	; 63
    38ea:	f8 94       	cli
    38ec:	9e bf       	out	0x3e, r25	; 62
    38ee:	0f be       	out	0x3f, r0	; 63
    38f0:	8d bf       	out	0x3d, r24	; 61
    38f2:	61 e0       	ldi	r22, 0x01	; 1
    38f4:	9d 2d       	mov	r25, r13
    38f6:	91 30       	cpi	r25, 0x01	; 1
    38f8:	09 f0       	breq	.+2      	; 0x38fc <menu_read_hand+0x132>
    38fa:	60 e0       	ldi	r22, 0x00	; 0
    38fc:	7e 01       	movw	r14, r28
    38fe:	08 94       	sec
    3900:	e1 1c       	adc	r14, r1
    3902:	f1 1c       	adc	r15, r1
    3904:	c7 01       	movw	r24, r14
    3906:	0e 94 dd 0d 	call	0x1bba	; 0x1bba <lcd_putstr>
    390a:	d0 90 67 0c 	lds	r13, 0x0C67
    390e:	80 e4       	ldi	r24, 0x40	; 64
    3910:	63 e0       	ldi	r22, 0x03	; 3
    3912:	0e 94 56 0e 	call	0x1cac	; 0x1cac <lcd_setpos>
    3916:	00 d0       	rcall	.+0      	; 0x3918 <menu_read_hand+0x14e>
    3918:	00 d0       	rcall	.+0      	; 0x391a <menu_read_hand+0x150>
    391a:	00 d0       	rcall	.+0      	; 0x391c <menu_read_hand+0x152>
    391c:	ed b7       	in	r30, 0x3d	; 61
    391e:	fe b7       	in	r31, 0x3e	; 62
    3920:	31 96       	adiw	r30, 0x01	; 1
    3922:	ad b7       	in	r26, 0x3d	; 61
    3924:	be b7       	in	r27, 0x3e	; 62
    3926:	12 96       	adiw	r26, 0x02	; 2
    3928:	fc 92       	st	X, r15
    392a:	ee 92       	st	-X, r14
    392c:	11 97       	sbiw	r26, 0x01	; 1
    392e:	8c e4       	ldi	r24, 0x4C	; 76
    3930:	91 e0       	ldi	r25, 0x01	; 1
    3932:	93 83       	std	Z+3, r25	; 0x03
    3934:	82 83       	std	Z+2, r24	; 0x02
    3936:	d8 01       	movw	r26, r16
    3938:	12 96       	adiw	r26, 0x02	; 2
    393a:	8c 91       	ld	r24, X
    393c:	84 83       	std	Z+4, r24	; 0x04
    393e:	15 82       	std	Z+5, r1	; 0x05
    3940:	0e 94 f0 25 	call	0x4be0	; 0x4be0 <sprintf>
    3944:	8d b7       	in	r24, 0x3d	; 61
    3946:	9e b7       	in	r25, 0x3e	; 62
    3948:	06 96       	adiw	r24, 0x06	; 6
    394a:	0f b6       	in	r0, 0x3f	; 63
    394c:	f8 94       	cli
    394e:	9e bf       	out	0x3e, r25	; 62
    3950:	0f be       	out	0x3f, r0	; 63
    3952:	8d bf       	out	0x3d, r24	; 61
    3954:	61 e0       	ldi	r22, 0x01	; 1
    3956:	9d 2d       	mov	r25, r13
    3958:	92 30       	cpi	r25, 0x02	; 2
    395a:	09 f0       	breq	.+2      	; 0x395e <menu_read_hand+0x194>
    395c:	60 e0       	ldi	r22, 0x00	; 0
    395e:	7e 01       	movw	r14, r28
    3960:	08 94       	sec
    3962:	e1 1c       	adc	r14, r1
    3964:	f1 1c       	adc	r15, r1
    3966:	c7 01       	movw	r24, r14
    3968:	0e 94 dd 0d 	call	0x1bba	; 0x1bba <lcd_putstr>
    396c:	d0 90 67 0c 	lds	r13, 0x0C67
    3970:	80 e4       	ldi	r24, 0x40	; 64
    3972:	64 e0       	ldi	r22, 0x04	; 4
    3974:	0e 94 56 0e 	call	0x1cac	; 0x1cac <lcd_setpos>
    3978:	00 d0       	rcall	.+0      	; 0x397a <menu_read_hand+0x1b0>
    397a:	00 d0       	rcall	.+0      	; 0x397c <menu_read_hand+0x1b2>
    397c:	00 d0       	rcall	.+0      	; 0x397e <menu_read_hand+0x1b4>
    397e:	ed b7       	in	r30, 0x3d	; 61
    3980:	fe b7       	in	r31, 0x3e	; 62
    3982:	31 96       	adiw	r30, 0x01	; 1
    3984:	ad b7       	in	r26, 0x3d	; 61
    3986:	be b7       	in	r27, 0x3e	; 62
    3988:	12 96       	adiw	r26, 0x02	; 2
    398a:	fc 92       	st	X, r15
    398c:	ee 92       	st	-X, r14
    398e:	11 97       	sbiw	r26, 0x01	; 1
    3990:	88 e5       	ldi	r24, 0x58	; 88
    3992:	91 e0       	ldi	r25, 0x01	; 1
    3994:	93 83       	std	Z+3, r25	; 0x03
    3996:	82 83       	std	Z+2, r24	; 0x02
    3998:	d8 01       	movw	r26, r16
    399a:	14 96       	adiw	r26, 0x04	; 4
    399c:	8c 91       	ld	r24, X
    399e:	84 83       	std	Z+4, r24	; 0x04
    39a0:	15 82       	std	Z+5, r1	; 0x05
    39a2:	0e 94 f0 25 	call	0x4be0	; 0x4be0 <sprintf>
    39a6:	8d b7       	in	r24, 0x3d	; 61
    39a8:	9e b7       	in	r25, 0x3e	; 62
    39aa:	06 96       	adiw	r24, 0x06	; 6
    39ac:	0f b6       	in	r0, 0x3f	; 63
    39ae:	f8 94       	cli
    39b0:	9e bf       	out	0x3e, r25	; 62
    39b2:	0f be       	out	0x3f, r0	; 63
    39b4:	8d bf       	out	0x3d, r24	; 61
    39b6:	61 e0       	ldi	r22, 0x01	; 1
    39b8:	9d 2d       	mov	r25, r13
    39ba:	93 30       	cpi	r25, 0x03	; 3
    39bc:	09 f0       	breq	.+2      	; 0x39c0 <menu_read_hand+0x1f6>
    39be:	60 e0       	ldi	r22, 0x00	; 0
    39c0:	7e 01       	movw	r14, r28
    39c2:	08 94       	sec
    39c4:	e1 1c       	adc	r14, r1
    39c6:	f1 1c       	adc	r15, r1
    39c8:	c7 01       	movw	r24, r14
    39ca:	0e 94 dd 0d 	call	0x1bba	; 0x1bba <lcd_putstr>
    39ce:	d0 90 67 0c 	lds	r13, 0x0C67
    39d2:	80 e4       	ldi	r24, 0x40	; 64
    39d4:	65 e0       	ldi	r22, 0x05	; 5
    39d6:	0e 94 56 0e 	call	0x1cac	; 0x1cac <lcd_setpos>
    39da:	00 d0       	rcall	.+0      	; 0x39dc <menu_read_hand+0x212>
    39dc:	00 d0       	rcall	.+0      	; 0x39de <menu_read_hand+0x214>
    39de:	00 d0       	rcall	.+0      	; 0x39e0 <menu_read_hand+0x216>
    39e0:	ed b7       	in	r30, 0x3d	; 61
    39e2:	fe b7       	in	r31, 0x3e	; 62
    39e4:	31 96       	adiw	r30, 0x01	; 1
    39e6:	ad b7       	in	r26, 0x3d	; 61
    39e8:	be b7       	in	r27, 0x3e	; 62
    39ea:	12 96       	adiw	r26, 0x02	; 2
    39ec:	fc 92       	st	X, r15
    39ee:	ee 92       	st	-X, r14
    39f0:	11 97       	sbiw	r26, 0x01	; 1
    39f2:	83 e6       	ldi	r24, 0x63	; 99
    39f4:	91 e0       	ldi	r25, 0x01	; 1
    39f6:	93 83       	std	Z+3, r25	; 0x03
    39f8:	82 83       	std	Z+2, r24	; 0x02
    39fa:	d8 01       	movw	r26, r16
    39fc:	13 96       	adiw	r26, 0x03	; 3
    39fe:	8c 91       	ld	r24, X
    3a00:	84 83       	std	Z+4, r24	; 0x04
    3a02:	15 82       	std	Z+5, r1	; 0x05
    3a04:	0e 94 f0 25 	call	0x4be0	; 0x4be0 <sprintf>
    3a08:	8d b7       	in	r24, 0x3d	; 61
    3a0a:	9e b7       	in	r25, 0x3e	; 62
    3a0c:	06 96       	adiw	r24, 0x06	; 6
    3a0e:	0f b6       	in	r0, 0x3f	; 63
    3a10:	f8 94       	cli
    3a12:	9e bf       	out	0x3e, r25	; 62
    3a14:	0f be       	out	0x3f, r0	; 63
    3a16:	8d bf       	out	0x3d, r24	; 61
    3a18:	61 e0       	ldi	r22, 0x01	; 1
    3a1a:	9d 2d       	mov	r25, r13
    3a1c:	94 30       	cpi	r25, 0x04	; 4
    3a1e:	09 f0       	breq	.+2      	; 0x3a22 <menu_read_hand+0x258>
    3a20:	60 e0       	ldi	r22, 0x00	; 0
    3a22:	ce 01       	movw	r24, r28
    3a24:	01 96       	adiw	r24, 0x01	; 1
    3a26:	0e 94 dd 0d 	call	0x1bba	; 0x1bba <lcd_putstr>
    3a2a:	0e 94 37 0d 	call	0x1a6e	; 0x1a6e <lcd_redraw_cs2>
    3a2e:	2b 96       	adiw	r28, 0x0b	; 11
    3a30:	0f b6       	in	r0, 0x3f	; 63
    3a32:	f8 94       	cli
    3a34:	de bf       	out	0x3e, r29	; 62
    3a36:	0f be       	out	0x3f, r0	; 63
    3a38:	cd bf       	out	0x3d, r28	; 61
    3a3a:	cf 91       	pop	r28
    3a3c:	df 91       	pop	r29
    3a3e:	1f 91       	pop	r17
    3a40:	0f 91       	pop	r16
    3a42:	ff 90       	pop	r15
    3a44:	ef 90       	pop	r14
    3a46:	df 90       	pop	r13
    3a48:	08 95       	ret

00003a4a <menu_select>:
    3a4a:	80 91 60 0c 	lds	r24, 0x0C60
    3a4e:	88 23       	and	r24, r24
    3a50:	01 f5       	brne	.+64     	; 0x3a92 <menu_select+0x48>
    3a52:	80 91 72 0c 	lds	r24, 0x0C72
    3a56:	81 50       	subi	r24, 0x01	; 1
    3a58:	80 93 72 0c 	sts	0x0C72, r24
    3a5c:	80 91 72 0c 	lds	r24, 0x0C72
    3a60:	88 23       	and	r24, r24
    3a62:	09 f0       	breq	.+2      	; 0x3a66 <menu_select+0x1c>
    3a64:	b1 c0       	rjmp	.+354    	; 0x3bc8 <menu_select+0x17e>
    3a66:	80 91 6c 06 	lds	r24, 0x066C
    3a6a:	8d 7f       	andi	r24, 0xFD	; 253
    3a6c:	80 93 6c 06 	sts	0x066C, r24
    3a70:	0e 94 c1 0c 	call	0x1982	; 0x1982 <lcd_clear>
    3a74:	0e 94 0e 0d 	call	0x1a1c	; 0x1a1c <lcd_redraw>
    3a78:	80 91 6c 06 	lds	r24, 0x066C
    3a7c:	88 60       	ori	r24, 0x08	; 8
    3a7e:	80 93 6c 06 	sts	0x066C, r24
    3a82:	80 91 5f 0c 	lds	r24, 0x0C5F
    3a86:	88 23       	and	r24, r24
    3a88:	09 f4       	brne	.+2      	; 0x3a8c <menu_select+0x42>
    3a8a:	ca c0       	rjmp	.+404    	; 0x3c20 <menu_select+0x1d6>
    3a8c:	0e 94 ed 06 	call	0xdda	; 0xdda <config_write>
    3a90:	08 95       	ret
    3a92:	81 30       	cpi	r24, 0x01	; 1
    3a94:	59 f4       	brne	.+22     	; 0x3aac <menu_select+0x62>
    3a96:	80 91 67 0c 	lds	r24, 0x0C67
    3a9a:	88 23       	and	r24, r24
    3a9c:	09 f4       	brne	.+2      	; 0x3aa0 <menu_select+0x56>
    3a9e:	8e c0       	rjmp	.+284    	; 0x3bbc <menu_select+0x172>
    3aa0:	81 50       	subi	r24, 0x01	; 1
    3aa2:	80 93 67 0c 	sts	0x0C67, r24
    3aa6:	0e 94 94 18 	call	0x3128	; 0x3128 <menu_read_time>
    3aaa:	08 95       	ret
    3aac:	82 30       	cpi	r24, 0x02	; 2
    3aae:	f1 f5       	brne	.+124    	; 0x3b2c <menu_select+0xe2>
    3ab0:	80 91 67 0c 	lds	r24, 0x0C67
    3ab4:	88 23       	and	r24, r24
    3ab6:	a1 f5       	brne	.+104    	; 0x3b20 <menu_select+0xd6>
    3ab8:	e0 91 72 0c 	lds	r30, 0x0C72
    3abc:	a0 91 72 0c 	lds	r26, 0x0C72
    3ac0:	b0 e0       	ldi	r27, 0x00	; 0
    3ac2:	aa 0f       	add	r26, r26
    3ac4:	bb 1f       	adc	r27, r27
    3ac6:	aa 59       	subi	r26, 0x9A	; 154
    3ac8:	b3 4f       	sbci	r27, 0xF3	; 243
    3aca:	0d 90       	ld	r0, X+
    3acc:	bc 91       	ld	r27, X
    3ace:	a0 2d       	mov	r26, r0
    3ad0:	2c 91       	ld	r18, X
    3ad2:	f0 e0       	ldi	r31, 0x00	; 0
    3ad4:	ee 0f       	add	r30, r30
    3ad6:	ff 1f       	adc	r31, r31
    3ad8:	ea 59       	subi	r30, 0x9A	; 154
    3ada:	f3 4f       	sbci	r31, 0xF3	; 243
    3adc:	01 90       	ld	r0, Z+
    3ade:	f0 81       	ld	r31, Z
    3ae0:	e0 2d       	mov	r30, r0
    3ae2:	82 2f       	mov	r24, r18
    3ae4:	90 e0       	ldi	r25, 0x00	; 0
    3ae6:	9c 01       	movw	r18, r24
    3ae8:	22 0f       	add	r18, r18
    3aea:	33 1f       	adc	r19, r19
    3aec:	c9 01       	movw	r24, r18
    3aee:	a3 e0       	ldi	r26, 0x03	; 3
    3af0:	88 0f       	add	r24, r24
    3af2:	99 1f       	adc	r25, r25
    3af4:	aa 95       	dec	r26
    3af6:	e1 f7       	brne	.-8      	; 0x3af0 <menu_select+0xa6>
    3af8:	82 1b       	sub	r24, r18
    3afa:	93 0b       	sbc	r25, r19
    3afc:	02 80       	ldd	r0, Z+2	; 0x02
    3afe:	f3 81       	ldd	r31, Z+3	; 0x03
    3b00:	e0 2d       	mov	r30, r0
    3b02:	e8 0f       	add	r30, r24
    3b04:	f9 1f       	adc	r31, r25
    3b06:	04 84       	ldd	r0, Z+12	; 0x0c
    3b08:	f5 85       	ldd	r31, Z+13	; 0x0d
    3b0a:	e0 2d       	mov	r30, r0
    3b0c:	80 91 61 0c 	lds	r24, 0x0C61
    3b10:	80 83       	st	Z, r24
    3b12:	80 91 62 0c 	lds	r24, 0x0C62
    3b16:	81 83       	std	Z+1, r24	; 0x01
    3b18:	80 91 63 0c 	lds	r24, 0x0C63
    3b1c:	82 83       	std	Z+2, r24	; 0x02
    3b1e:	4e c0       	rjmp	.+156    	; 0x3bbc <menu_select+0x172>
    3b20:	81 50       	subi	r24, 0x01	; 1
    3b22:	80 93 67 0c 	sts	0x0C67, r24
    3b26:	0e 94 85 19 	call	0x330a	; 0x330a <menu_read_color>
    3b2a:	08 95       	ret
    3b2c:	83 30       	cpi	r24, 0x03	; 3
    3b2e:	09 f0       	breq	.+2      	; 0x3b32 <menu_select+0xe8>
    3b30:	5d c0       	rjmp	.+186    	; 0x3bec <menu_select+0x1a2>
    3b32:	80 91 67 0c 	lds	r24, 0x0C67
    3b36:	88 23       	and	r24, r24
    3b38:	09 f0       	breq	.+2      	; 0x3b3c <menu_select+0xf2>
    3b3a:	52 c0       	rjmp	.+164    	; 0x3be0 <menu_select+0x196>
    3b3c:	e0 91 72 0c 	lds	r30, 0x0C72
    3b40:	a0 91 72 0c 	lds	r26, 0x0C72
    3b44:	b0 e0       	ldi	r27, 0x00	; 0
    3b46:	aa 0f       	add	r26, r26
    3b48:	bb 1f       	adc	r27, r27
    3b4a:	aa 59       	subi	r26, 0x9A	; 154
    3b4c:	b3 4f       	sbci	r27, 0xF3	; 243
    3b4e:	0d 90       	ld	r0, X+
    3b50:	bc 91       	ld	r27, X
    3b52:	a0 2d       	mov	r26, r0
    3b54:	2c 91       	ld	r18, X
    3b56:	f0 e0       	ldi	r31, 0x00	; 0
    3b58:	ee 0f       	add	r30, r30
    3b5a:	ff 1f       	adc	r31, r31
    3b5c:	ea 59       	subi	r30, 0x9A	; 154
    3b5e:	f3 4f       	sbci	r31, 0xF3	; 243
    3b60:	01 90       	ld	r0, Z+
    3b62:	f0 81       	ld	r31, Z
    3b64:	e0 2d       	mov	r30, r0
    3b66:	82 2f       	mov	r24, r18
    3b68:	90 e0       	ldi	r25, 0x00	; 0
    3b6a:	9c 01       	movw	r18, r24
    3b6c:	22 0f       	add	r18, r18
    3b6e:	33 1f       	adc	r19, r19
    3b70:	c9 01       	movw	r24, r18
    3b72:	43 e0       	ldi	r20, 0x03	; 3
    3b74:	88 0f       	add	r24, r24
    3b76:	99 1f       	adc	r25, r25
    3b78:	4a 95       	dec	r20
    3b7a:	e1 f7       	brne	.-8      	; 0x3b74 <menu_select+0x12a>
    3b7c:	82 1b       	sub	r24, r18
    3b7e:	93 0b       	sbc	r25, r19
    3b80:	02 80       	ldd	r0, Z+2	; 0x02
    3b82:	f3 81       	ldd	r31, Z+3	; 0x03
    3b84:	e0 2d       	mov	r30, r0
    3b86:	e8 0f       	add	r30, r24
    3b88:	f9 1f       	adc	r31, r25
    3b8a:	04 84       	ldd	r0, Z+12	; 0x0c
    3b8c:	f5 85       	ldd	r31, Z+13	; 0x0d
    3b8e:	e0 2d       	mov	r30, r0
    3b90:	80 91 61 0c 	lds	r24, 0x0C61
    3b94:	80 83       	st	Z, r24
    3b96:	80 91 62 0c 	lds	r24, 0x0C62
    3b9a:	81 83       	std	Z+1, r24	; 0x01
    3b9c:	80 91 63 0c 	lds	r24, 0x0C63
    3ba0:	82 83       	std	Z+2, r24	; 0x02
    3ba2:	80 91 64 0c 	lds	r24, 0x0C64
    3ba6:	83 83       	std	Z+3, r24	; 0x03
    3ba8:	80 91 65 0c 	lds	r24, 0x0C65
    3bac:	84 83       	std	Z+4, r24	; 0x04
    3bae:	80 91 66 0c 	lds	r24, 0x0C66
    3bb2:	0e 94 8a 14 	call	0x2914	; 0x2914 <led_zeiger_set_active>
    3bb6:	81 e0       	ldi	r24, 0x01	; 1
    3bb8:	0e 94 65 14 	call	0x28ca	; 0x28ca <led_zeiger_recreate>
    3bbc:	10 92 60 0c 	sts	0x0C60, r1
    3bc0:	0e 94 f2 0c 	call	0x19e4	; 0x19e4 <lcd_clear_cs2>
    3bc4:	0e 94 37 0d 	call	0x1a6e	; 0x1a6e <lcd_redraw_cs2>
    3bc8:	e0 91 72 0c 	lds	r30, 0x0C72
    3bcc:	f0 e0       	ldi	r31, 0x00	; 0
    3bce:	ee 0f       	add	r30, r30
    3bd0:	ff 1f       	adc	r31, r31
    3bd2:	ea 59       	subi	r30, 0x9A	; 154
    3bd4:	f3 4f       	sbci	r31, 0xF3	; 243
    3bd6:	80 81       	ld	r24, Z
    3bd8:	91 81       	ldd	r25, Z+1	; 0x01
    3bda:	0e 94 3a 18 	call	0x3074	; 0x3074 <menu_draw>
    3bde:	08 95       	ret
    3be0:	81 50       	subi	r24, 0x01	; 1
    3be2:	80 93 67 0c 	sts	0x0C67, r24
    3be6:	0e 94 e5 1b 	call	0x37ca	; 0x37ca <menu_read_hand>
    3bea:	08 95       	ret
    3bec:	84 30       	cpi	r24, 0x04	; 4
    3bee:	71 f4       	brne	.+28     	; 0x3c0c <menu_select+0x1c2>
    3bf0:	0e 94 cc 24 	call	0x4998	; 0x4998 <speaker_isplaying>
    3bf4:	88 23       	and	r24, r24
    3bf6:	19 f0       	breq	.+6      	; 0x3bfe <menu_select+0x1b4>
    3bf8:	0e 94 c6 24 	call	0x498c	; 0x498c <speaker_stop>
    3bfc:	08 95       	ret
    3bfe:	10 92 60 0c 	sts	0x0C60, r1
    3c02:	0e 94 f2 0c 	call	0x19e4	; 0x19e4 <lcd_clear_cs2>
    3c06:	0e 94 37 0d 	call	0x1a6e	; 0x1a6e <lcd_redraw_cs2>
    3c0a:	08 95       	ret
    3c0c:	85 30       	cpi	r24, 0x05	; 5
    3c0e:	41 f4       	brne	.+16     	; 0x3c20 <menu_select+0x1d6>
    3c10:	0e 94 c6 24 	call	0x498c	; 0x498c <speaker_stop>
    3c14:	10 92 60 0c 	sts	0x0C60, r1
    3c18:	0e 94 f2 0c 	call	0x19e4	; 0x19e4 <lcd_clear_cs2>
    3c1c:	0e 94 37 0d 	call	0x1a6e	; 0x1a6e <lcd_redraw_cs2>
    3c20:	08 95       	ret

00003c22 <menu_toggle_force_dcf>:
    3c22:	88 23       	and	r24, r24
    3c24:	21 f4       	brne	.+8      	; 0x3c2e <menu_toggle_force_dcf+0xc>
    3c26:	80 91 6c 06 	lds	r24, 0x066C
    3c2a:	80 71       	andi	r24, 0x10	; 16
    3c2c:	08 95       	ret
    3c2e:	81 30       	cpi	r24, 0x01	; 1
    3c30:	91 f4       	brne	.+36     	; 0x3c56 <menu_toggle_force_dcf+0x34>
    3c32:	80 91 6c 06 	lds	r24, 0x066C
    3c36:	84 ff       	sbrs	r24, 4
    3c38:	07 c0       	rjmp	.+14     	; 0x3c48 <menu_toggle_force_dcf+0x26>
    3c3a:	80 91 6c 06 	lds	r24, 0x066C
    3c3e:	8f 7e       	andi	r24, 0xEF	; 239
    3c40:	80 93 6c 06 	sts	0x066C, r24
    3c44:	80 e0       	ldi	r24, 0x00	; 0
    3c46:	08 95       	ret
    3c48:	80 91 6c 06 	lds	r24, 0x066C
    3c4c:	80 61       	ori	r24, 0x10	; 16
    3c4e:	80 93 6c 06 	sts	0x066C, r24
    3c52:	81 e0       	ldi	r24, 0x01	; 1
    3c54:	08 95       	ret
    3c56:	08 95       	ret

00003c58 <menu_show_dcf>:
    3c58:	1f 93       	push	r17
    3c5a:	80 e0       	ldi	r24, 0x00	; 0
    3c5c:	0e 94 11 1e 	call	0x3c22	; 0x3c22 <menu_toggle_force_dcf>
    3c60:	18 2f       	mov	r17, r24
    3c62:	81 e4       	ldi	r24, 0x41	; 65
    3c64:	61 e0       	ldi	r22, 0x01	; 1
    3c66:	0e 94 56 0e 	call	0x1cac	; 0x1cac <lcd_setpos>
    3c6a:	8f e6       	ldi	r24, 0x6F	; 111
    3c6c:	91 e0       	ldi	r25, 0x01	; 1
    3c6e:	60 e0       	ldi	r22, 0x00	; 0
    3c70:	0e 94 dd 0d 	call	0x1bba	; 0x1bba <lcd_putstr>
    3c74:	81 e4       	ldi	r24, 0x41	; 65
    3c76:	62 e0       	ldi	r22, 0x02	; 2
    3c78:	0e 94 56 0e 	call	0x1cac	; 0x1cac <lcd_setpos>
    3c7c:	89 e7       	ldi	r24, 0x79	; 121
    3c7e:	91 e0       	ldi	r25, 0x01	; 1
    3c80:	60 e0       	ldi	r22, 0x00	; 0
    3c82:	0e 94 dd 0d 	call	0x1bba	; 0x1bba <lcd_putstr>
    3c86:	81 e4       	ldi	r24, 0x41	; 65
    3c88:	63 e0       	ldi	r22, 0x03	; 3
    3c8a:	0e 94 56 0e 	call	0x1cac	; 0x1cac <lcd_setpos>
    3c8e:	11 23       	and	r17, r17
    3c90:	19 f0       	breq	.+6      	; 0x3c98 <menu_show_dcf+0x40>
    3c92:	82 e8       	ldi	r24, 0x82	; 130
    3c94:	91 e0       	ldi	r25, 0x01	; 1
    3c96:	02 c0       	rjmp	.+4      	; 0x3c9c <menu_show_dcf+0x44>
    3c98:	89 e8       	ldi	r24, 0x89	; 137
    3c9a:	91 e0       	ldi	r25, 0x01	; 1
    3c9c:	60 e0       	ldi	r22, 0x00	; 0
    3c9e:	0e 94 dd 0d 	call	0x1bba	; 0x1bba <lcd_putstr>
    3ca2:	1f 91       	pop	r17
    3ca4:	08 95       	ret

00003ca6 <menu_song_prev>:
    3ca6:	0f 93       	push	r16
    3ca8:	1f 93       	push	r17
    3caa:	cf 93       	push	r28
    3cac:	df 93       	push	r29
    3cae:	10 91 67 0c 	lds	r17, 0x0C67
    3cb2:	18 7f       	andi	r17, 0xF8	; 248
    3cb4:	0e 94 f2 0c 	call	0x19e4	; 0x19e4 <lcd_clear_cs2>
    3cb8:	00 e0       	ldi	r16, 0x00	; 0
    3cba:	cd e0       	ldi	r28, 0x0D	; 13
    3cbc:	d0 e0       	ldi	r29, 0x00	; 0
    3cbe:	23 c0       	rjmp	.+70     	; 0x3d06 <menu_song_prev+0x60>
    3cc0:	80 e4       	ldi	r24, 0x40	; 64
    3cc2:	60 2f       	mov	r22, r16
    3cc4:	0e 94 56 0e 	call	0x1cac	; 0x1cac <lcd_setpos>
    3cc8:	80 91 67 0c 	lds	r24, 0x0C67
    3ccc:	21 2f       	mov	r18, r17
    3cce:	30 e0       	ldi	r19, 0x00	; 0
    3cd0:	18 17       	cp	r17, r24
    3cd2:	59 f4       	brne	.+22     	; 0x3cea <menu_song_prev+0x44>
    3cd4:	2c 9f       	mul	r18, r28
    3cd6:	c0 01       	movw	r24, r0
    3cd8:	2d 9f       	mul	r18, r29
    3cda:	90 0d       	add	r25, r0
    3cdc:	3c 9f       	mul	r19, r28
    3cde:	90 0d       	add	r25, r0
    3ce0:	11 24       	eor	r1, r1
    3ce2:	83 58       	subi	r24, 0x83	; 131
    3ce4:	9a 4f       	sbci	r25, 0xFA	; 250
    3ce6:	61 e0       	ldi	r22, 0x01	; 1
    3ce8:	0a c0       	rjmp	.+20     	; 0x3cfe <menu_song_prev+0x58>
    3cea:	2c 9f       	mul	r18, r28
    3cec:	c0 01       	movw	r24, r0
    3cee:	2d 9f       	mul	r18, r29
    3cf0:	90 0d       	add	r25, r0
    3cf2:	3c 9f       	mul	r19, r28
    3cf4:	90 0d       	add	r25, r0
    3cf6:	11 24       	eor	r1, r1
    3cf8:	83 58       	subi	r24, 0x83	; 131
    3cfa:	9a 4f       	sbci	r25, 0xFA	; 250
    3cfc:	60 e0       	ldi	r22, 0x00	; 0
    3cfe:	0e 94 dd 0d 	call	0x1bba	; 0x1bba <lcd_putstr>
    3d02:	1f 5f       	subi	r17, 0xFF	; 255
    3d04:	0f 5f       	subi	r16, 0xFF	; 255
    3d06:	16 30       	cpi	r17, 0x06	; 6
    3d08:	d8 f2       	brcs	.-74     	; 0x3cc0 <menu_song_prev+0x1a>
    3d0a:	0e 94 37 0d 	call	0x1a6e	; 0x1a6e <lcd_redraw_cs2>
    3d0e:	df 91       	pop	r29
    3d10:	cf 91       	pop	r28
    3d12:	1f 91       	pop	r17
    3d14:	0f 91       	pop	r16
    3d16:	08 95       	ret

00003d18 <menu_toggle_wecker>:
    3d18:	88 23       	and	r24, r24
    3d1a:	21 f4       	brne	.+8      	; 0x3d24 <menu_toggle_wecker+0xc>
    3d1c:	80 91 6c 06 	lds	r24, 0x066C
    3d20:	80 72       	andi	r24, 0x20	; 32
    3d22:	08 95       	ret
    3d24:	81 30       	cpi	r24, 0x01	; 1
    3d26:	a1 f4       	brne	.+40     	; 0x3d50 <menu_toggle_wecker+0x38>
    3d28:	80 93 5f 0c 	sts	0x0C5F, r24
    3d2c:	80 91 6c 06 	lds	r24, 0x066C
    3d30:	85 ff       	sbrs	r24, 5
    3d32:	07 c0       	rjmp	.+14     	; 0x3d42 <menu_toggle_wecker+0x2a>
    3d34:	80 91 6c 06 	lds	r24, 0x066C
    3d38:	8f 7d       	andi	r24, 0xDF	; 223
    3d3a:	80 93 6c 06 	sts	0x066C, r24
    3d3e:	80 e0       	ldi	r24, 0x00	; 0
    3d40:	08 95       	ret
    3d42:	80 91 6c 06 	lds	r24, 0x066C
    3d46:	80 62       	ori	r24, 0x20	; 32
    3d48:	80 93 6c 06 	sts	0x066C, r24
    3d4c:	81 e0       	ldi	r24, 0x01	; 1
    3d4e:	08 95       	ret
    3d50:	08 95       	ret

00003d52 <menu_show_wecker>:
    3d52:	1f 93       	push	r17
    3d54:	80 e0       	ldi	r24, 0x00	; 0
    3d56:	0e 94 8c 1e 	call	0x3d18	; 0x3d18 <menu_toggle_wecker>
    3d5a:	18 2f       	mov	r17, r24
    3d5c:	81 e4       	ldi	r24, 0x41	; 65
    3d5e:	62 e0       	ldi	r22, 0x02	; 2
    3d60:	0e 94 56 0e 	call	0x1cac	; 0x1cac <lcd_setpos>
    3d64:	82 e9       	ldi	r24, 0x92	; 146
    3d66:	91 e0       	ldi	r25, 0x01	; 1
    3d68:	60 e0       	ldi	r22, 0x00	; 0
    3d6a:	0e 94 dd 0d 	call	0x1bba	; 0x1bba <lcd_putstr>
    3d6e:	81 e4       	ldi	r24, 0x41	; 65
    3d70:	63 e0       	ldi	r22, 0x03	; 3
    3d72:	0e 94 56 0e 	call	0x1cac	; 0x1cac <lcd_setpos>
    3d76:	11 23       	and	r17, r17
    3d78:	19 f0       	breq	.+6      	; 0x3d80 <menu_show_wecker+0x2e>
    3d7a:	82 e8       	ldi	r24, 0x82	; 130
    3d7c:	91 e0       	ldi	r25, 0x01	; 1
    3d7e:	02 c0       	rjmp	.+4      	; 0x3d84 <menu_show_wecker+0x32>
    3d80:	89 e8       	ldi	r24, 0x89	; 137
    3d82:	91 e0       	ldi	r25, 0x01	; 1
    3d84:	60 e0       	ldi	r22, 0x00	; 0
    3d86:	0e 94 dd 0d 	call	0x1bba	; 0x1bba <lcd_putstr>
    3d8a:	1f 91       	pop	r17
    3d8c:	08 95       	ret

00003d8e <menu_toggle_wecker_rep>:
    3d8e:	88 23       	and	r24, r24
    3d90:	21 f4       	brne	.+8      	; 0x3d9a <menu_toggle_wecker_rep+0xc>
    3d92:	80 91 6c 06 	lds	r24, 0x066C
    3d96:	80 74       	andi	r24, 0x40	; 64
    3d98:	08 95       	ret
    3d9a:	81 30       	cpi	r24, 0x01	; 1
    3d9c:	a1 f4       	brne	.+40     	; 0x3dc6 <menu_toggle_wecker_rep+0x38>
    3d9e:	80 93 5f 0c 	sts	0x0C5F, r24
    3da2:	80 91 6c 06 	lds	r24, 0x066C
    3da6:	86 ff       	sbrs	r24, 6
    3da8:	07 c0       	rjmp	.+14     	; 0x3db8 <menu_toggle_wecker_rep+0x2a>
    3daa:	80 91 6c 06 	lds	r24, 0x066C
    3dae:	8f 7b       	andi	r24, 0xBF	; 191
    3db0:	80 93 6c 06 	sts	0x066C, r24
    3db4:	80 e0       	ldi	r24, 0x00	; 0
    3db6:	08 95       	ret
    3db8:	80 91 6c 06 	lds	r24, 0x066C
    3dbc:	80 64       	ori	r24, 0x40	; 64
    3dbe:	80 93 6c 06 	sts	0x066C, r24
    3dc2:	81 e0       	ldi	r24, 0x01	; 1
    3dc4:	08 95       	ret
    3dc6:	08 95       	ret

00003dc8 <menu_show_wecker_rep>:
    3dc8:	1f 93       	push	r17
    3dca:	80 e0       	ldi	r24, 0x00	; 0
    3dcc:	0e 94 c7 1e 	call	0x3d8e	; 0x3d8e <menu_toggle_wecker_rep>
    3dd0:	18 2f       	mov	r17, r24
    3dd2:	81 e4       	ldi	r24, 0x41	; 65
    3dd4:	62 e0       	ldi	r22, 0x02	; 2
    3dd6:	0e 94 56 0e 	call	0x1cac	; 0x1cac <lcd_setpos>
    3dda:	8a e9       	ldi	r24, 0x9A	; 154
    3ddc:	91 e0       	ldi	r25, 0x01	; 1
    3dde:	60 e0       	ldi	r22, 0x00	; 0
    3de0:	0e 94 dd 0d 	call	0x1bba	; 0x1bba <lcd_putstr>
    3de4:	81 e4       	ldi	r24, 0x41	; 65
    3de6:	63 e0       	ldi	r22, 0x03	; 3
    3de8:	0e 94 56 0e 	call	0x1cac	; 0x1cac <lcd_setpos>
    3dec:	83 ea       	ldi	r24, 0xA3	; 163
    3dee:	91 e0       	ldi	r25, 0x01	; 1
    3df0:	60 e0       	ldi	r22, 0x00	; 0
    3df2:	0e 94 dd 0d 	call	0x1bba	; 0x1bba <lcd_putstr>
    3df6:	81 e4       	ldi	r24, 0x41	; 65
    3df8:	64 e0       	ldi	r22, 0x04	; 4
    3dfa:	0e 94 56 0e 	call	0x1cac	; 0x1cac <lcd_setpos>
    3dfe:	11 23       	and	r17, r17
    3e00:	19 f0       	breq	.+6      	; 0x3e08 <menu_show_wecker_rep+0x40>
    3e02:	82 e8       	ldi	r24, 0x82	; 130
    3e04:	91 e0       	ldi	r25, 0x01	; 1
    3e06:	02 c0       	rjmp	.+4      	; 0x3e0c <menu_show_wecker_rep+0x44>
    3e08:	89 e8       	ldi	r24, 0x89	; 137
    3e0a:	91 e0       	ldi	r25, 0x01	; 1
    3e0c:	60 e0       	ldi	r22, 0x00	; 0
    3e0e:	0e 94 dd 0d 	call	0x1bba	; 0x1bba <lcd_putstr>
    3e12:	1f 91       	pop	r17
    3e14:	08 95       	ret

00003e16 <menu_show_wecksong>:
    3e16:	81 e4       	ldi	r24, 0x41	; 65
    3e18:	62 e0       	ldi	r22, 0x02	; 2
    3e1a:	0e 94 56 0e 	call	0x1cac	; 0x1cac <lcd_setpos>
    3e1e:	40 91 68 06 	lds	r20, 0x0668
    3e22:	50 e0       	ldi	r21, 0x00	; 0
    3e24:	2d e0       	ldi	r18, 0x0D	; 13
    3e26:	30 e0       	ldi	r19, 0x00	; 0
    3e28:	42 9f       	mul	r20, r18
    3e2a:	c0 01       	movw	r24, r0
    3e2c:	43 9f       	mul	r20, r19
    3e2e:	90 0d       	add	r25, r0
    3e30:	52 9f       	mul	r21, r18
    3e32:	90 0d       	add	r25, r0
    3e34:	11 24       	eor	r1, r1
    3e36:	83 58       	subi	r24, 0x83	; 131
    3e38:	9a 4f       	sbci	r25, 0xFA	; 250
    3e3a:	60 e0       	ldi	r22, 0x00	; 0
    3e3c:	0e 94 dd 0d 	call	0x1bba	; 0x1bba <lcd_putstr>
    3e40:	08 95       	ret

00003e42 <menu_show_tzeiger>:
    3e42:	1f 93       	push	r17
    3e44:	0e 94 de 14 	call	0x29bc	; 0x29bc <led_zeiger_get_active>
    3e48:	18 2f       	mov	r17, r24
    3e4a:	81 e4       	ldi	r24, 0x41	; 65
    3e4c:	61 e0       	ldi	r22, 0x01	; 1
    3e4e:	0e 94 56 0e 	call	0x1cac	; 0x1cac <lcd_setpos>
    3e52:	8a ea       	ldi	r24, 0xAA	; 170
    3e54:	91 e0       	ldi	r25, 0x01	; 1
    3e56:	60 e0       	ldi	r22, 0x00	; 0
    3e58:	0e 94 dd 0d 	call	0x1bba	; 0x1bba <lcd_putstr>
    3e5c:	81 e4       	ldi	r24, 0x41	; 65
    3e5e:	62 e0       	ldi	r22, 0x02	; 2
    3e60:	0e 94 56 0e 	call	0x1cac	; 0x1cac <lcd_setpos>
    3e64:	83 eb       	ldi	r24, 0xB3	; 179
    3e66:	91 e0       	ldi	r25, 0x01	; 1
    3e68:	60 e0       	ldi	r22, 0x00	; 0
    3e6a:	0e 94 dd 0d 	call	0x1bba	; 0x1bba <lcd_putstr>
    3e6e:	81 e4       	ldi	r24, 0x41	; 65
    3e70:	63 e0       	ldi	r22, 0x03	; 3
    3e72:	0e 94 56 0e 	call	0x1cac	; 0x1cac <lcd_setpos>
    3e76:	11 30       	cpi	r17, 0x01	; 1
    3e78:	41 f0       	breq	.+16     	; 0x3e8a <menu_show_tzeiger+0x48>
    3e7a:	11 30       	cpi	r17, 0x01	; 1
    3e7c:	18 f0       	brcs	.+6      	; 0x3e84 <menu_show_tzeiger+0x42>
    3e7e:	12 30       	cpi	r17, 0x02	; 2
    3e80:	61 f4       	brne	.+24     	; 0x3e9a <menu_show_tzeiger+0x58>
    3e82:	06 c0       	rjmp	.+12     	; 0x3e90 <menu_show_tzeiger+0x4e>
    3e84:	8c eb       	ldi	r24, 0xBC	; 188
    3e86:	91 e0       	ldi	r25, 0x01	; 1
    3e88:	05 c0       	rjmp	.+10     	; 0x3e94 <menu_show_tzeiger+0x52>
    3e8a:	85 ec       	ldi	r24, 0xC5	; 197
    3e8c:	91 e0       	ldi	r25, 0x01	; 1
    3e8e:	02 c0       	rjmp	.+4      	; 0x3e94 <menu_show_tzeiger+0x52>
    3e90:	8e ec       	ldi	r24, 0xCE	; 206
    3e92:	91 e0       	ldi	r25, 0x01	; 1
    3e94:	60 e0       	ldi	r22, 0x00	; 0
    3e96:	0e 94 dd 0d 	call	0x1bba	; 0x1bba <lcd_putstr>
    3e9a:	1f 91       	pop	r17
    3e9c:	08 95       	ret

00003e9e <menu_draw2>:
    3e9e:	cf 93       	push	r28
    3ea0:	df 93       	push	r29
    3ea2:	ec 01       	movw	r28, r24
    3ea4:	0e 94 f2 0c 	call	0x19e4	; 0x19e4 <lcd_clear_cs2>
    3ea8:	20 97       	sbiw	r28, 0x00	; 0
    3eaa:	71 f1       	breq	.+92     	; 0x3f08 <menu_draw2+0x6a>
    3eac:	8c 85       	ldd	r24, Y+12	; 0x0c
    3eae:	9d 85       	ldd	r25, Y+13	; 0x0d
    3eb0:	00 97       	sbiw	r24, 0x00	; 0
    3eb2:	51 f1       	breq	.+84     	; 0x3f08 <menu_draw2+0x6a>
    3eb4:	2b 85       	ldd	r18, Y+11	; 0x0b
    3eb6:	23 30       	cpi	r18, 0x03	; 3
    3eb8:	19 f4       	brne	.+6      	; 0x3ec0 <menu_draw2+0x22>
    3eba:	0e 94 36 19 	call	0x326c	; 0x326c <menu_show_time>
    3ebe:	22 c0       	rjmp	.+68     	; 0x3f04 <menu_draw2+0x66>
    3ec0:	22 30       	cpi	r18, 0x02	; 2
    3ec2:	19 f4       	brne	.+6      	; 0x3eca <menu_draw2+0x2c>
    3ec4:	0e 94 63 1a 	call	0x34c6	; 0x34c6 <menu_show_color>
    3ec8:	1d c0       	rjmp	.+58     	; 0x3f04 <menu_draw2+0x66>
    3eca:	24 30       	cpi	r18, 0x04	; 4
    3ecc:	19 f4       	brne	.+6      	; 0x3ed4 <menu_draw2+0x36>
    3ece:	0e 94 fd 1a 	call	0x35fa	; 0x35fa <menu_show_hand>
    3ed2:	18 c0       	rjmp	.+48     	; 0x3f04 <menu_draw2+0x66>
    3ed4:	26 30       	cpi	r18, 0x06	; 6
    3ed6:	19 f4       	brne	.+6      	; 0x3ede <menu_draw2+0x40>
    3ed8:	0e 94 2c 1e 	call	0x3c58	; 0x3c58 <menu_show_dcf>
    3edc:	13 c0       	rjmp	.+38     	; 0x3f04 <menu_draw2+0x66>
    3ede:	28 30       	cpi	r18, 0x08	; 8
    3ee0:	19 f4       	brne	.+6      	; 0x3ee8 <menu_draw2+0x4a>
    3ee2:	0e 94 a9 1e 	call	0x3d52	; 0x3d52 <menu_show_wecker>
    3ee6:	0e c0       	rjmp	.+28     	; 0x3f04 <menu_draw2+0x66>
    3ee8:	2a 30       	cpi	r18, 0x0A	; 10
    3eea:	19 f4       	brne	.+6      	; 0x3ef2 <menu_draw2+0x54>
    3eec:	0e 94 e4 1e 	call	0x3dc8	; 0x3dc8 <menu_show_wecker_rep>
    3ef0:	09 c0       	rjmp	.+18     	; 0x3f04 <menu_draw2+0x66>
    3ef2:	29 30       	cpi	r18, 0x09	; 9
    3ef4:	19 f4       	brne	.+6      	; 0x3efc <menu_draw2+0x5e>
    3ef6:	0e 94 0b 1f 	call	0x3e16	; 0x3e16 <menu_show_wecksong>
    3efa:	04 c0       	rjmp	.+8      	; 0x3f04 <menu_draw2+0x66>
    3efc:	2b 30       	cpi	r18, 0x0B	; 11
    3efe:	11 f4       	brne	.+4      	; 0x3f04 <menu_draw2+0x66>
    3f00:	0e 94 21 1f 	call	0x3e42	; 0x3e42 <menu_show_tzeiger>
    3f04:	0e 94 37 0d 	call	0x1a6e	; 0x1a6e <lcd_redraw_cs2>
    3f08:	df 91       	pop	r29
    3f0a:	cf 91       	pop	r28
    3f0c:	08 95       	ret

00003f0e <menu_minus>:
    3f0e:	80 91 60 0c 	lds	r24, 0x0C60
    3f12:	88 23       	and	r24, r24
    3f14:	09 f0       	breq	.+2      	; 0x3f18 <menu_minus+0xa>
    3f16:	54 c0       	rjmp	.+168    	; 0x3fc0 <menu_minus+0xb2>
    3f18:	e0 91 72 0c 	lds	r30, 0x0C72
    3f1c:	f0 e0       	ldi	r31, 0x00	; 0
    3f1e:	ee 0f       	add	r30, r30
    3f20:	ff 1f       	adc	r31, r31
    3f22:	ea 59       	subi	r30, 0x9A	; 154
    3f24:	f3 4f       	sbci	r31, 0xF3	; 243
    3f26:	01 90       	ld	r0, Z+
    3f28:	f0 81       	ld	r31, Z
    3f2a:	e0 2d       	mov	r30, r0
    3f2c:	20 81       	ld	r18, Z
    3f2e:	e0 91 72 0c 	lds	r30, 0x0C72
    3f32:	30 e0       	ldi	r19, 0x00	; 0
    3f34:	f0 e0       	ldi	r31, 0x00	; 0
    3f36:	ee 0f       	add	r30, r30
    3f38:	ff 1f       	adc	r31, r31
    3f3a:	ea 59       	subi	r30, 0x9A	; 154
    3f3c:	f3 4f       	sbci	r31, 0xF3	; 243
    3f3e:	01 90       	ld	r0, Z+
    3f40:	f0 81       	ld	r31, Z
    3f42:	e0 2d       	mov	r30, r0
    3f44:	81 81       	ldd	r24, Z+1	; 0x01
    3f46:	90 e0       	ldi	r25, 0x00	; 0
    3f48:	01 97       	sbiw	r24, 0x01	; 1
    3f4a:	28 17       	cp	r18, r24
    3f4c:	39 07       	cpc	r19, r25
    3f4e:	6c f4       	brge	.+26     	; 0x3f6a <menu_minus+0x5c>
    3f50:	e0 91 72 0c 	lds	r30, 0x0C72
    3f54:	f0 e0       	ldi	r31, 0x00	; 0
    3f56:	ee 0f       	add	r30, r30
    3f58:	ff 1f       	adc	r31, r31
    3f5a:	ea 59       	subi	r30, 0x9A	; 154
    3f5c:	f3 4f       	sbci	r31, 0xF3	; 243
    3f5e:	01 90       	ld	r0, Z+
    3f60:	f0 81       	ld	r31, Z
    3f62:	e0 2d       	mov	r30, r0
    3f64:	80 81       	ld	r24, Z
    3f66:	8f 5f       	subi	r24, 0xFF	; 255
    3f68:	80 83       	st	Z, r24
    3f6a:	e0 91 72 0c 	lds	r30, 0x0C72
    3f6e:	f0 e0       	ldi	r31, 0x00	; 0
    3f70:	ee 0f       	add	r30, r30
    3f72:	ff 1f       	adc	r31, r31
    3f74:	ea 59       	subi	r30, 0x9A	; 154
    3f76:	f3 4f       	sbci	r31, 0xF3	; 243
    3f78:	80 81       	ld	r24, Z
    3f7a:	91 81       	ldd	r25, Z+1	; 0x01
    3f7c:	0e 94 3a 18 	call	0x3074	; 0x3074 <menu_draw>
    3f80:	e0 91 72 0c 	lds	r30, 0x0C72
    3f84:	a0 91 72 0c 	lds	r26, 0x0C72
    3f88:	b0 e0       	ldi	r27, 0x00	; 0
    3f8a:	aa 0f       	add	r26, r26
    3f8c:	bb 1f       	adc	r27, r27
    3f8e:	aa 59       	subi	r26, 0x9A	; 154
    3f90:	b3 4f       	sbci	r27, 0xF3	; 243
    3f92:	0d 90       	ld	r0, X+
    3f94:	bc 91       	ld	r27, X
    3f96:	a0 2d       	mov	r26, r0
    3f98:	9c 91       	ld	r25, X
    3f9a:	f0 e0       	ldi	r31, 0x00	; 0
    3f9c:	ee 0f       	add	r30, r30
    3f9e:	ff 1f       	adc	r31, r31
    3fa0:	ea 59       	subi	r30, 0x9A	; 154
    3fa2:	f3 4f       	sbci	r31, 0xF3	; 243
    3fa4:	01 90       	ld	r0, Z+
    3fa6:	f0 81       	ld	r31, Z
    3fa8:	e0 2d       	mov	r30, r0
    3faa:	8e e0       	ldi	r24, 0x0E	; 14
    3fac:	98 9f       	mul	r25, r24
    3fae:	c0 01       	movw	r24, r0
    3fb0:	11 24       	eor	r1, r1
    3fb2:	22 81       	ldd	r18, Z+2	; 0x02
    3fb4:	33 81       	ldd	r19, Z+3	; 0x03
    3fb6:	82 0f       	add	r24, r18
    3fb8:	93 1f       	adc	r25, r19
    3fba:	0e 94 4f 1f 	call	0x3e9e	; 0x3e9e <menu_draw2>
    3fbe:	08 95       	ret
    3fc0:	81 30       	cpi	r24, 0x01	; 1
    3fc2:	41 f5       	brne	.+80     	; 0x4014 <menu_minus+0x106>
    3fc4:	80 91 67 0c 	lds	r24, 0x0C67
    3fc8:	88 23       	and	r24, r24
    3fca:	51 f4       	brne	.+20     	; 0x3fe0 <menu_minus+0xd2>
    3fcc:	80 91 61 0c 	lds	r24, 0x0C61
    3fd0:	88 23       	and	r24, r24
    3fd2:	11 f4       	brne	.+4      	; 0x3fd8 <menu_minus+0xca>
    3fd4:	87 e1       	ldi	r24, 0x17	; 23
    3fd6:	01 c0       	rjmp	.+2      	; 0x3fda <menu_minus+0xcc>
    3fd8:	81 50       	subi	r24, 0x01	; 1
    3fda:	80 93 61 0c 	sts	0x0C61, r24
    3fde:	17 c0       	rjmp	.+46     	; 0x400e <menu_minus+0x100>
    3fe0:	81 30       	cpi	r24, 0x01	; 1
    3fe2:	51 f4       	brne	.+20     	; 0x3ff8 <menu_minus+0xea>
    3fe4:	80 91 62 0c 	lds	r24, 0x0C62
    3fe8:	88 23       	and	r24, r24
    3fea:	11 f4       	brne	.+4      	; 0x3ff0 <menu_minus+0xe2>
    3fec:	8b e3       	ldi	r24, 0x3B	; 59
    3fee:	01 c0       	rjmp	.+2      	; 0x3ff2 <menu_minus+0xe4>
    3ff0:	81 50       	subi	r24, 0x01	; 1
    3ff2:	80 93 62 0c 	sts	0x0C62, r24
    3ff6:	0b c0       	rjmp	.+22     	; 0x400e <menu_minus+0x100>
    3ff8:	82 30       	cpi	r24, 0x02	; 2
    3ffa:	49 f4       	brne	.+18     	; 0x400e <menu_minus+0x100>
    3ffc:	80 91 63 0c 	lds	r24, 0x0C63
    4000:	88 23       	and	r24, r24
    4002:	11 f4       	brne	.+4      	; 0x4008 <menu_minus+0xfa>
    4004:	8b e3       	ldi	r24, 0x3B	; 59
    4006:	01 c0       	rjmp	.+2      	; 0x400a <menu_minus+0xfc>
    4008:	81 50       	subi	r24, 0x01	; 1
    400a:	80 93 63 0c 	sts	0x0C63, r24
    400e:	0e 94 94 18 	call	0x3128	; 0x3128 <menu_read_time>
    4012:	08 95       	ret
    4014:	82 30       	cpi	r24, 0x02	; 2
    4016:	09 f0       	breq	.+2      	; 0x401a <menu_minus+0x10c>
    4018:	46 c0       	rjmp	.+140    	; 0x40a6 <menu_minus+0x198>
    401a:	e0 91 72 0c 	lds	r30, 0x0C72
    401e:	a0 91 72 0c 	lds	r26, 0x0C72
    4022:	b0 e0       	ldi	r27, 0x00	; 0
    4024:	aa 0f       	add	r26, r26
    4026:	bb 1f       	adc	r27, r27
    4028:	aa 59       	subi	r26, 0x9A	; 154
    402a:	b3 4f       	sbci	r27, 0xF3	; 243
    402c:	0d 90       	ld	r0, X+
    402e:	bc 91       	ld	r27, X
    4030:	a0 2d       	mov	r26, r0
    4032:	2c 91       	ld	r18, X
    4034:	f0 e0       	ldi	r31, 0x00	; 0
    4036:	ee 0f       	add	r30, r30
    4038:	ff 1f       	adc	r31, r31
    403a:	ea 59       	subi	r30, 0x9A	; 154
    403c:	f3 4f       	sbci	r31, 0xF3	; 243
    403e:	01 90       	ld	r0, Z+
    4040:	f0 81       	ld	r31, Z
    4042:	e0 2d       	mov	r30, r0
    4044:	82 2f       	mov	r24, r18
    4046:	90 e0       	ldi	r25, 0x00	; 0
    4048:	9c 01       	movw	r18, r24
    404a:	22 0f       	add	r18, r18
    404c:	33 1f       	adc	r19, r19
    404e:	c9 01       	movw	r24, r18
    4050:	a3 e0       	ldi	r26, 0x03	; 3
    4052:	88 0f       	add	r24, r24
    4054:	99 1f       	adc	r25, r25
    4056:	aa 95       	dec	r26
    4058:	e1 f7       	brne	.-8      	; 0x4052 <menu_minus+0x144>
    405a:	82 1b       	sub	r24, r18
    405c:	93 0b       	sbc	r25, r19
    405e:	02 80       	ldd	r0, Z+2	; 0x02
    4060:	f3 81       	ldd	r31, Z+3	; 0x03
    4062:	e0 2d       	mov	r30, r0
    4064:	e8 0f       	add	r30, r24
    4066:	f9 1f       	adc	r31, r25
    4068:	04 84       	ldd	r0, Z+12	; 0x0c
    406a:	f5 85       	ldd	r31, Z+13	; 0x0d
    406c:	e0 2d       	mov	r30, r0
    406e:	80 91 67 0c 	lds	r24, 0x0C67
    4072:	88 23       	and	r24, r24
    4074:	31 f4       	brne	.+12     	; 0x4082 <menu_minus+0x174>
    4076:	80 81       	ld	r24, Z
    4078:	88 23       	and	r24, r24
    407a:	91 f0       	breq	.+36     	; 0x40a0 <menu_minus+0x192>
    407c:	81 50       	subi	r24, 0x01	; 1
    407e:	80 83       	st	Z, r24
    4080:	0f c0       	rjmp	.+30     	; 0x40a0 <menu_minus+0x192>
    4082:	81 30       	cpi	r24, 0x01	; 1
    4084:	31 f4       	brne	.+12     	; 0x4092 <menu_minus+0x184>
    4086:	81 81       	ldd	r24, Z+1	; 0x01
    4088:	88 23       	and	r24, r24
    408a:	51 f0       	breq	.+20     	; 0x40a0 <menu_minus+0x192>
    408c:	81 50       	subi	r24, 0x01	; 1
    408e:	81 83       	std	Z+1, r24	; 0x01
    4090:	07 c0       	rjmp	.+14     	; 0x40a0 <menu_minus+0x192>
    4092:	82 30       	cpi	r24, 0x02	; 2
    4094:	29 f4       	brne	.+10     	; 0x40a0 <menu_minus+0x192>
    4096:	82 81       	ldd	r24, Z+2	; 0x02
    4098:	88 23       	and	r24, r24
    409a:	11 f0       	breq	.+4      	; 0x40a0 <menu_minus+0x192>
    409c:	81 50       	subi	r24, 0x01	; 1
    409e:	82 83       	std	Z+2, r24	; 0x02
    40a0:	0e 94 85 19 	call	0x330a	; 0x330a <menu_read_color>
    40a4:	08 95       	ret
    40a6:	83 30       	cpi	r24, 0x03	; 3
    40a8:	09 f0       	breq	.+2      	; 0x40ac <menu_minus+0x19e>
    40aa:	59 c0       	rjmp	.+178    	; 0x415e <menu_minus+0x250>
    40ac:	e0 91 72 0c 	lds	r30, 0x0C72
    40b0:	a0 91 72 0c 	lds	r26, 0x0C72
    40b4:	b0 e0       	ldi	r27, 0x00	; 0
    40b6:	aa 0f       	add	r26, r26
    40b8:	bb 1f       	adc	r27, r27
    40ba:	aa 59       	subi	r26, 0x9A	; 154
    40bc:	b3 4f       	sbci	r27, 0xF3	; 243
    40be:	0d 90       	ld	r0, X+
    40c0:	bc 91       	ld	r27, X
    40c2:	a0 2d       	mov	r26, r0
    40c4:	2c 91       	ld	r18, X
    40c6:	f0 e0       	ldi	r31, 0x00	; 0
    40c8:	ee 0f       	add	r30, r30
    40ca:	ff 1f       	adc	r31, r31
    40cc:	ea 59       	subi	r30, 0x9A	; 154
    40ce:	f3 4f       	sbci	r31, 0xF3	; 243
    40d0:	01 90       	ld	r0, Z+
    40d2:	f0 81       	ld	r31, Z
    40d4:	e0 2d       	mov	r30, r0
    40d6:	82 2f       	mov	r24, r18
    40d8:	90 e0       	ldi	r25, 0x00	; 0
    40da:	9c 01       	movw	r18, r24
    40dc:	22 0f       	add	r18, r18
    40de:	33 1f       	adc	r19, r19
    40e0:	c9 01       	movw	r24, r18
    40e2:	43 e0       	ldi	r20, 0x03	; 3
    40e4:	88 0f       	add	r24, r24
    40e6:	99 1f       	adc	r25, r25
    40e8:	4a 95       	dec	r20
    40ea:	e1 f7       	brne	.-8      	; 0x40e4 <menu_minus+0x1d6>
    40ec:	82 1b       	sub	r24, r18
    40ee:	93 0b       	sbc	r25, r19
    40f0:	02 80       	ldd	r0, Z+2	; 0x02
    40f2:	f3 81       	ldd	r31, Z+3	; 0x03
    40f4:	e0 2d       	mov	r30, r0
    40f6:	e8 0f       	add	r30, r24
    40f8:	f9 1f       	adc	r31, r25
    40fa:	04 84       	ldd	r0, Z+12	; 0x0c
    40fc:	f5 85       	ldd	r31, Z+13	; 0x0d
    40fe:	e0 2d       	mov	r30, r0
    4100:	80 91 67 0c 	lds	r24, 0x0C67
    4104:	88 23       	and	r24, r24
    4106:	31 f4       	brne	.+12     	; 0x4114 <menu_minus+0x206>
    4108:	80 81       	ld	r24, Z
    410a:	88 23       	and	r24, r24
    410c:	11 f1       	breq	.+68     	; 0x4152 <menu_minus+0x244>
    410e:	81 50       	subi	r24, 0x01	; 1
    4110:	80 83       	st	Z, r24
    4112:	1f c0       	rjmp	.+62     	; 0x4152 <menu_minus+0x244>
    4114:	81 30       	cpi	r24, 0x01	; 1
    4116:	31 f4       	brne	.+12     	; 0x4124 <menu_minus+0x216>
    4118:	81 81       	ldd	r24, Z+1	; 0x01
    411a:	88 23       	and	r24, r24
    411c:	d1 f0       	breq	.+52     	; 0x4152 <menu_minus+0x244>
    411e:	81 50       	subi	r24, 0x01	; 1
    4120:	81 83       	std	Z+1, r24	; 0x01
    4122:	17 c0       	rjmp	.+46     	; 0x4152 <menu_minus+0x244>
    4124:	82 30       	cpi	r24, 0x02	; 2
    4126:	31 f4       	brne	.+12     	; 0x4134 <menu_minus+0x226>
    4128:	82 81       	ldd	r24, Z+2	; 0x02
    412a:	88 23       	and	r24, r24
    412c:	91 f0       	breq	.+36     	; 0x4152 <menu_minus+0x244>
    412e:	81 50       	subi	r24, 0x01	; 1
    4130:	82 83       	std	Z+2, r24	; 0x02
    4132:	0f c0       	rjmp	.+30     	; 0x4152 <menu_minus+0x244>
    4134:	83 30       	cpi	r24, 0x03	; 3
    4136:	31 f4       	brne	.+12     	; 0x4144 <menu_minus+0x236>
    4138:	84 81       	ldd	r24, Z+4	; 0x04
    413a:	88 23       	and	r24, r24
    413c:	51 f0       	breq	.+20     	; 0x4152 <menu_minus+0x244>
    413e:	81 50       	subi	r24, 0x01	; 1
    4140:	84 83       	std	Z+4, r24	; 0x04
    4142:	07 c0       	rjmp	.+14     	; 0x4152 <menu_minus+0x244>
    4144:	84 30       	cpi	r24, 0x04	; 4
    4146:	29 f4       	brne	.+10     	; 0x4152 <menu_minus+0x244>
    4148:	83 81       	ldd	r24, Z+3	; 0x03
    414a:	88 23       	and	r24, r24
    414c:	11 f0       	breq	.+4      	; 0x4152 <menu_minus+0x244>
    414e:	81 50       	subi	r24, 0x01	; 1
    4150:	83 83       	std	Z+3, r24	; 0x03
    4152:	81 e0       	ldi	r24, 0x01	; 1
    4154:	0e 94 65 14 	call	0x28ca	; 0x28ca <led_zeiger_recreate>
    4158:	0e 94 e5 1b 	call	0x37ca	; 0x37ca <menu_read_hand>
    415c:	08 95       	ret
    415e:	84 30       	cpi	r24, 0x04	; 4
    4160:	51 f4       	brne	.+20     	; 0x4176 <menu_minus+0x268>
    4162:	80 91 67 0c 	lds	r24, 0x0C67
    4166:	85 30       	cpi	r24, 0x05	; 5
    4168:	18 f4       	brcc	.+6      	; 0x4170 <menu_minus+0x262>
    416a:	8f 5f       	subi	r24, 0xFF	; 255
    416c:	80 93 67 0c 	sts	0x0C67, r24
    4170:	0e 94 53 1e 	call	0x3ca6	; 0x3ca6 <menu_song_prev>
    4174:	08 95       	ret
    4176:	85 30       	cpi	r24, 0x05	; 5
    4178:	71 f4       	brne	.+28     	; 0x4196 <menu_minus+0x288>
    417a:	80 91 67 0c 	lds	r24, 0x0C67
    417e:	85 30       	cpi	r24, 0x05	; 5
    4180:	18 f4       	brcc	.+6      	; 0x4188 <menu_minus+0x27a>
    4182:	8f 5f       	subi	r24, 0xFF	; 255
    4184:	80 93 67 0c 	sts	0x0C67, r24
    4188:	80 91 67 0c 	lds	r24, 0x0C67
    418c:	60 e0       	ldi	r22, 0x00	; 0
    418e:	0e 94 aa 24 	call	0x4954	; 0x4954 <speaker_start>
    4192:	0e 94 53 1e 	call	0x3ca6	; 0x3ca6 <menu_song_prev>
    4196:	08 95       	ret

00004198 <menu_plus>:
    4198:	80 91 60 0c 	lds	r24, 0x0C60
    419c:	88 23       	and	r24, r24
    419e:	09 f0       	breq	.+2      	; 0x41a2 <menu_plus+0xa>
    41a0:	45 c0       	rjmp	.+138    	; 0x422c <menu_plus+0x94>
    41a2:	e0 91 72 0c 	lds	r30, 0x0C72
    41a6:	f0 e0       	ldi	r31, 0x00	; 0
    41a8:	ee 0f       	add	r30, r30
    41aa:	ff 1f       	adc	r31, r31
    41ac:	ea 59       	subi	r30, 0x9A	; 154
    41ae:	f3 4f       	sbci	r31, 0xF3	; 243
    41b0:	01 90       	ld	r0, Z+
    41b2:	f0 81       	ld	r31, Z
    41b4:	e0 2d       	mov	r30, r0
    41b6:	80 81       	ld	r24, Z
    41b8:	88 23       	and	r24, r24
    41ba:	69 f0       	breq	.+26     	; 0x41d6 <menu_plus+0x3e>
    41bc:	e0 91 72 0c 	lds	r30, 0x0C72
    41c0:	f0 e0       	ldi	r31, 0x00	; 0
    41c2:	ee 0f       	add	r30, r30
    41c4:	ff 1f       	adc	r31, r31
    41c6:	ea 59       	subi	r30, 0x9A	; 154
    41c8:	f3 4f       	sbci	r31, 0xF3	; 243
    41ca:	01 90       	ld	r0, Z+
    41cc:	f0 81       	ld	r31, Z
    41ce:	e0 2d       	mov	r30, r0
    41d0:	80 81       	ld	r24, Z
    41d2:	81 50       	subi	r24, 0x01	; 1
    41d4:	80 83       	st	Z, r24
    41d6:	e0 91 72 0c 	lds	r30, 0x0C72
    41da:	f0 e0       	ldi	r31, 0x00	; 0
    41dc:	ee 0f       	add	r30, r30
    41de:	ff 1f       	adc	r31, r31
    41e0:	ea 59       	subi	r30, 0x9A	; 154
    41e2:	f3 4f       	sbci	r31, 0xF3	; 243
    41e4:	80 81       	ld	r24, Z
    41e6:	91 81       	ldd	r25, Z+1	; 0x01
    41e8:	0e 94 3a 18 	call	0x3074	; 0x3074 <menu_draw>
    41ec:	e0 91 72 0c 	lds	r30, 0x0C72
    41f0:	a0 91 72 0c 	lds	r26, 0x0C72
    41f4:	b0 e0       	ldi	r27, 0x00	; 0
    41f6:	aa 0f       	add	r26, r26
    41f8:	bb 1f       	adc	r27, r27
    41fa:	aa 59       	subi	r26, 0x9A	; 154
    41fc:	b3 4f       	sbci	r27, 0xF3	; 243
    41fe:	0d 90       	ld	r0, X+
    4200:	bc 91       	ld	r27, X
    4202:	a0 2d       	mov	r26, r0
    4204:	9c 91       	ld	r25, X
    4206:	f0 e0       	ldi	r31, 0x00	; 0
    4208:	ee 0f       	add	r30, r30
    420a:	ff 1f       	adc	r31, r31
    420c:	ea 59       	subi	r30, 0x9A	; 154
    420e:	f3 4f       	sbci	r31, 0xF3	; 243
    4210:	01 90       	ld	r0, Z+
    4212:	f0 81       	ld	r31, Z
    4214:	e0 2d       	mov	r30, r0
    4216:	8e e0       	ldi	r24, 0x0E	; 14
    4218:	98 9f       	mul	r25, r24
    421a:	c0 01       	movw	r24, r0
    421c:	11 24       	eor	r1, r1
    421e:	22 81       	ldd	r18, Z+2	; 0x02
    4220:	33 81       	ldd	r19, Z+3	; 0x03
    4222:	82 0f       	add	r24, r18
    4224:	93 1f       	adc	r25, r19
    4226:	0e 94 4f 1f 	call	0x3e9e	; 0x3e9e <menu_draw2>
    422a:	08 95       	ret
    422c:	81 30       	cpi	r24, 0x01	; 1
    422e:	59 f5       	brne	.+86     	; 0x4286 <menu_plus+0xee>
    4230:	80 91 67 0c 	lds	r24, 0x0C67
    4234:	88 23       	and	r24, r24
    4236:	59 f4       	brne	.+22     	; 0x424e <menu_plus+0xb6>
    4238:	80 91 61 0c 	lds	r24, 0x0C61
    423c:	87 31       	cpi	r24, 0x17	; 23
    423e:	19 f4       	brne	.+6      	; 0x4246 <menu_plus+0xae>
    4240:	10 92 61 0c 	sts	0x0C61, r1
    4244:	1d c0       	rjmp	.+58     	; 0x4280 <menu_plus+0xe8>
    4246:	8f 5f       	subi	r24, 0xFF	; 255
    4248:	80 93 61 0c 	sts	0x0C61, r24
    424c:	19 c0       	rjmp	.+50     	; 0x4280 <menu_plus+0xe8>
    424e:	81 30       	cpi	r24, 0x01	; 1
    4250:	59 f4       	brne	.+22     	; 0x4268 <menu_plus+0xd0>
    4252:	80 91 62 0c 	lds	r24, 0x0C62
    4256:	8b 33       	cpi	r24, 0x3B	; 59
    4258:	19 f4       	brne	.+6      	; 0x4260 <menu_plus+0xc8>
    425a:	10 92 62 0c 	sts	0x0C62, r1
    425e:	10 c0       	rjmp	.+32     	; 0x4280 <menu_plus+0xe8>
    4260:	8f 5f       	subi	r24, 0xFF	; 255
    4262:	80 93 62 0c 	sts	0x0C62, r24
    4266:	0c c0       	rjmp	.+24     	; 0x4280 <menu_plus+0xe8>
    4268:	82 30       	cpi	r24, 0x02	; 2
    426a:	51 f4       	brne	.+20     	; 0x4280 <menu_plus+0xe8>
    426c:	80 91 63 0c 	lds	r24, 0x0C63
    4270:	8b 33       	cpi	r24, 0x3B	; 59
    4272:	19 f4       	brne	.+6      	; 0x427a <menu_plus+0xe2>
    4274:	10 92 63 0c 	sts	0x0C63, r1
    4278:	03 c0       	rjmp	.+6      	; 0x4280 <menu_plus+0xe8>
    427a:	8f 5f       	subi	r24, 0xFF	; 255
    427c:	80 93 63 0c 	sts	0x0C63, r24
    4280:	0e 94 94 18 	call	0x3128	; 0x3128 <menu_read_time>
    4284:	08 95       	ret
    4286:	82 30       	cpi	r24, 0x02	; 2
    4288:	09 f0       	breq	.+2      	; 0x428c <menu_plus+0xf4>
    428a:	48 c0       	rjmp	.+144    	; 0x431c <menu_plus+0x184>
    428c:	e0 91 72 0c 	lds	r30, 0x0C72
    4290:	a0 91 72 0c 	lds	r26, 0x0C72
    4294:	b0 e0       	ldi	r27, 0x00	; 0
    4296:	aa 0f       	add	r26, r26
    4298:	bb 1f       	adc	r27, r27
    429a:	aa 59       	subi	r26, 0x9A	; 154
    429c:	b3 4f       	sbci	r27, 0xF3	; 243
    429e:	0d 90       	ld	r0, X+
    42a0:	bc 91       	ld	r27, X
    42a2:	a0 2d       	mov	r26, r0
    42a4:	2c 91       	ld	r18, X
    42a6:	f0 e0       	ldi	r31, 0x00	; 0
    42a8:	ee 0f       	add	r30, r30
    42aa:	ff 1f       	adc	r31, r31
    42ac:	ea 59       	subi	r30, 0x9A	; 154
    42ae:	f3 4f       	sbci	r31, 0xF3	; 243
    42b0:	01 90       	ld	r0, Z+
    42b2:	f0 81       	ld	r31, Z
    42b4:	e0 2d       	mov	r30, r0
    42b6:	82 2f       	mov	r24, r18
    42b8:	90 e0       	ldi	r25, 0x00	; 0
    42ba:	9c 01       	movw	r18, r24
    42bc:	22 0f       	add	r18, r18
    42be:	33 1f       	adc	r19, r19
    42c0:	c9 01       	movw	r24, r18
    42c2:	43 e0       	ldi	r20, 0x03	; 3
    42c4:	88 0f       	add	r24, r24
    42c6:	99 1f       	adc	r25, r25
    42c8:	4a 95       	dec	r20
    42ca:	e1 f7       	brne	.-8      	; 0x42c4 <menu_plus+0x12c>
    42cc:	82 1b       	sub	r24, r18
    42ce:	93 0b       	sbc	r25, r19
    42d0:	02 80       	ldd	r0, Z+2	; 0x02
    42d2:	f3 81       	ldd	r31, Z+3	; 0x03
    42d4:	e0 2d       	mov	r30, r0
    42d6:	e8 0f       	add	r30, r24
    42d8:	f9 1f       	adc	r31, r25
    42da:	04 84       	ldd	r0, Z+12	; 0x0c
    42dc:	f5 85       	ldd	r31, Z+13	; 0x0d
    42de:	e0 2d       	mov	r30, r0
    42e0:	80 91 67 0c 	lds	r24, 0x0C67
    42e4:	88 23       	and	r24, r24
    42e6:	29 f4       	brne	.+10     	; 0x42f2 <menu_plus+0x15a>
    42e8:	80 81       	ld	r24, Z
    42ea:	8f 30       	cpi	r24, 0x0F	; 15
    42ec:	10 f4       	brcc	.+4      	; 0x42f2 <menu_plus+0x15a>
    42ee:	8f 5f       	subi	r24, 0xFF	; 255
    42f0:	80 83       	st	Z, r24
    42f2:	80 91 67 0c 	lds	r24, 0x0C67
    42f6:	81 30       	cpi	r24, 0x01	; 1
    42f8:	29 f4       	brne	.+10     	; 0x4304 <menu_plus+0x16c>
    42fa:	81 81       	ldd	r24, Z+1	; 0x01
    42fc:	8f 30       	cpi	r24, 0x0F	; 15
    42fe:	10 f4       	brcc	.+4      	; 0x4304 <menu_plus+0x16c>
    4300:	8f 5f       	subi	r24, 0xFF	; 255
    4302:	81 83       	std	Z+1, r24	; 0x01
    4304:	80 91 67 0c 	lds	r24, 0x0C67
    4308:	82 30       	cpi	r24, 0x02	; 2
    430a:	29 f4       	brne	.+10     	; 0x4316 <menu_plus+0x17e>
    430c:	82 81       	ldd	r24, Z+2	; 0x02
    430e:	8f 30       	cpi	r24, 0x0F	; 15
    4310:	10 f4       	brcc	.+4      	; 0x4316 <menu_plus+0x17e>
    4312:	8f 5f       	subi	r24, 0xFF	; 255
    4314:	82 83       	std	Z+2, r24	; 0x02
    4316:	0e 94 85 19 	call	0x330a	; 0x330a <menu_read_color>
    431a:	08 95       	ret
    431c:	83 30       	cpi	r24, 0x03	; 3
    431e:	09 f0       	breq	.+2      	; 0x4322 <menu_plus+0x18a>
    4320:	59 c0       	rjmp	.+178    	; 0x43d4 <menu_plus+0x23c>
    4322:	e0 91 72 0c 	lds	r30, 0x0C72
    4326:	a0 91 72 0c 	lds	r26, 0x0C72
    432a:	b0 e0       	ldi	r27, 0x00	; 0
    432c:	aa 0f       	add	r26, r26
    432e:	bb 1f       	adc	r27, r27
    4330:	aa 59       	subi	r26, 0x9A	; 154
    4332:	b3 4f       	sbci	r27, 0xF3	; 243
    4334:	0d 90       	ld	r0, X+
    4336:	bc 91       	ld	r27, X
    4338:	a0 2d       	mov	r26, r0
    433a:	2c 91       	ld	r18, X
    433c:	f0 e0       	ldi	r31, 0x00	; 0
    433e:	ee 0f       	add	r30, r30
    4340:	ff 1f       	adc	r31, r31
    4342:	ea 59       	subi	r30, 0x9A	; 154
    4344:	f3 4f       	sbci	r31, 0xF3	; 243
    4346:	01 90       	ld	r0, Z+
    4348:	f0 81       	ld	r31, Z
    434a:	e0 2d       	mov	r30, r0
    434c:	82 2f       	mov	r24, r18
    434e:	90 e0       	ldi	r25, 0x00	; 0
    4350:	9c 01       	movw	r18, r24
    4352:	22 0f       	add	r18, r18
    4354:	33 1f       	adc	r19, r19
    4356:	c9 01       	movw	r24, r18
    4358:	a3 e0       	ldi	r26, 0x03	; 3
    435a:	88 0f       	add	r24, r24
    435c:	99 1f       	adc	r25, r25
    435e:	aa 95       	dec	r26
    4360:	e1 f7       	brne	.-8      	; 0x435a <menu_plus+0x1c2>
    4362:	82 1b       	sub	r24, r18
    4364:	93 0b       	sbc	r25, r19
    4366:	02 80       	ldd	r0, Z+2	; 0x02
    4368:	f3 81       	ldd	r31, Z+3	; 0x03
    436a:	e0 2d       	mov	r30, r0
    436c:	e8 0f       	add	r30, r24
    436e:	f9 1f       	adc	r31, r25
    4370:	04 84       	ldd	r0, Z+12	; 0x0c
    4372:	f5 85       	ldd	r31, Z+13	; 0x0d
    4374:	e0 2d       	mov	r30, r0
    4376:	80 91 67 0c 	lds	r24, 0x0C67
    437a:	88 23       	and	r24, r24
    437c:	31 f4       	brne	.+12     	; 0x438a <menu_plus+0x1f2>
    437e:	80 81       	ld	r24, Z
    4380:	8f 30       	cpi	r24, 0x0F	; 15
    4382:	10 f5       	brcc	.+68     	; 0x43c8 <menu_plus+0x230>
    4384:	8f 5f       	subi	r24, 0xFF	; 255
    4386:	80 83       	st	Z, r24
    4388:	1f c0       	rjmp	.+62     	; 0x43c8 <menu_plus+0x230>
    438a:	81 30       	cpi	r24, 0x01	; 1
    438c:	31 f4       	brne	.+12     	; 0x439a <menu_plus+0x202>
    438e:	81 81       	ldd	r24, Z+1	; 0x01
    4390:	8f 30       	cpi	r24, 0x0F	; 15
    4392:	d0 f4       	brcc	.+52     	; 0x43c8 <menu_plus+0x230>
    4394:	8f 5f       	subi	r24, 0xFF	; 255
    4396:	81 83       	std	Z+1, r24	; 0x01
    4398:	17 c0       	rjmp	.+46     	; 0x43c8 <menu_plus+0x230>
    439a:	82 30       	cpi	r24, 0x02	; 2
    439c:	31 f4       	brne	.+12     	; 0x43aa <menu_plus+0x212>
    439e:	82 81       	ldd	r24, Z+2	; 0x02
    43a0:	8f 30       	cpi	r24, 0x0F	; 15
    43a2:	90 f4       	brcc	.+36     	; 0x43c8 <menu_plus+0x230>
    43a4:	8f 5f       	subi	r24, 0xFF	; 255
    43a6:	82 83       	std	Z+2, r24	; 0x02
    43a8:	0f c0       	rjmp	.+30     	; 0x43c8 <menu_plus+0x230>
    43aa:	83 30       	cpi	r24, 0x03	; 3
    43ac:	31 f4       	brne	.+12     	; 0x43ba <menu_plus+0x222>
    43ae:	84 81       	ldd	r24, Z+4	; 0x04
    43b0:	84 30       	cpi	r24, 0x04	; 4
    43b2:	50 f4       	brcc	.+20     	; 0x43c8 <menu_plus+0x230>
    43b4:	8f 5f       	subi	r24, 0xFF	; 255
    43b6:	84 83       	std	Z+4, r24	; 0x04
    43b8:	07 c0       	rjmp	.+14     	; 0x43c8 <menu_plus+0x230>
    43ba:	84 30       	cpi	r24, 0x04	; 4
    43bc:	29 f4       	brne	.+10     	; 0x43c8 <menu_plus+0x230>
    43be:	83 81       	ldd	r24, Z+3	; 0x03
    43c0:	84 30       	cpi	r24, 0x04	; 4
    43c2:	10 f4       	brcc	.+4      	; 0x43c8 <menu_plus+0x230>
    43c4:	8f 5f       	subi	r24, 0xFF	; 255
    43c6:	83 83       	std	Z+3, r24	; 0x03
    43c8:	81 e0       	ldi	r24, 0x01	; 1
    43ca:	0e 94 65 14 	call	0x28ca	; 0x28ca <led_zeiger_recreate>
    43ce:	0e 94 e5 1b 	call	0x37ca	; 0x37ca <menu_read_hand>
    43d2:	08 95       	ret
    43d4:	84 30       	cpi	r24, 0x04	; 4
    43d6:	51 f4       	brne	.+20     	; 0x43ec <menu_plus+0x254>
    43d8:	80 91 67 0c 	lds	r24, 0x0C67
    43dc:	88 23       	and	r24, r24
    43de:	19 f0       	breq	.+6      	; 0x43e6 <menu_plus+0x24e>
    43e0:	81 50       	subi	r24, 0x01	; 1
    43e2:	80 93 67 0c 	sts	0x0C67, r24
    43e6:	0e 94 53 1e 	call	0x3ca6	; 0x3ca6 <menu_song_prev>
    43ea:	08 95       	ret
    43ec:	85 30       	cpi	r24, 0x05	; 5
    43ee:	71 f4       	brne	.+28     	; 0x440c <menu_plus+0x274>
    43f0:	80 91 67 0c 	lds	r24, 0x0C67
    43f4:	88 23       	and	r24, r24
    43f6:	19 f0       	breq	.+6      	; 0x43fe <menu_plus+0x266>
    43f8:	81 50       	subi	r24, 0x01	; 1
    43fa:	80 93 67 0c 	sts	0x0C67, r24
    43fe:	80 91 67 0c 	lds	r24, 0x0C67
    4402:	60 e0       	ldi	r22, 0x00	; 0
    4404:	0e 94 aa 24 	call	0x4954	; 0x4954 <speaker_start>
    4408:	0e 94 53 1e 	call	0x3ca6	; 0x3ca6 <menu_song_prev>
    440c:	08 95       	ret

0000440e <menu_toggle_zeiger>:
    440e:	0e 94 de 14 	call	0x29bc	; 0x29bc <led_zeiger_get_active>
    4412:	81 30       	cpi	r24, 0x01	; 1
    4414:	39 f0       	breq	.+14     	; 0x4424 <menu_toggle_zeiger+0x16>
    4416:	81 30       	cpi	r24, 0x01	; 1
    4418:	18 f0       	brcs	.+6      	; 0x4420 <menu_toggle_zeiger+0x12>
    441a:	82 30       	cpi	r24, 0x02	; 2
    441c:	41 f4       	brne	.+16     	; 0x442e <menu_toggle_zeiger+0x20>
    441e:	04 c0       	rjmp	.+8      	; 0x4428 <menu_toggle_zeiger+0x1a>
    4420:	81 e0       	ldi	r24, 0x01	; 1
    4422:	03 c0       	rjmp	.+6      	; 0x442a <menu_toggle_zeiger+0x1c>
    4424:	82 e0       	ldi	r24, 0x02	; 2
    4426:	01 c0       	rjmp	.+2      	; 0x442a <menu_toggle_zeiger+0x1c>
    4428:	80 e0       	ldi	r24, 0x00	; 0
    442a:	0e 94 8a 14 	call	0x2914	; 0x2914 <led_zeiger_set_active>
    442e:	0e 94 f2 0c 	call	0x19e4	; 0x19e4 <lcd_clear_cs2>
    4432:	0e 94 21 1f 	call	0x3e42	; 0x3e42 <menu_show_tzeiger>
    4436:	0e 94 37 0d 	call	0x1a6e	; 0x1a6e <lcd_redraw_cs2>
    443a:	08 95       	ret

0000443c <menu_save>:
    443c:	0f 93       	push	r16
    443e:	1f 93       	push	r17
    4440:	cf 93       	push	r28
    4442:	df 93       	push	r29
    4444:	e0 91 72 0c 	lds	r30, 0x0C72
    4448:	f0 e0       	ldi	r31, 0x00	; 0
    444a:	ee 0f       	add	r30, r30
    444c:	ff 1f       	adc	r31, r31
    444e:	ea 59       	subi	r30, 0x9A	; 154
    4450:	f3 4f       	sbci	r31, 0xF3	; 243
    4452:	01 90       	ld	r0, Z+
    4454:	f0 81       	ld	r31, Z
    4456:	e0 2d       	mov	r30, r0
    4458:	82 81       	ldd	r24, Z+2	; 0x02
    445a:	93 81       	ldd	r25, Z+3	; 0x03
    445c:	40 81       	ld	r20, Z
    445e:	24 2f       	mov	r18, r20
    4460:	30 e0       	ldi	r19, 0x00	; 0
    4462:	22 0f       	add	r18, r18
    4464:	33 1f       	adc	r19, r19
    4466:	d9 01       	movw	r26, r18
    4468:	13 e0       	ldi	r17, 0x03	; 3
    446a:	aa 0f       	add	r26, r26
    446c:	bb 1f       	adc	r27, r27
    446e:	1a 95       	dec	r17
    4470:	e1 f7       	brne	.-8      	; 0x446a <menu_save+0x2e>
    4472:	a2 1b       	sub	r26, r18
    4474:	b3 0b       	sbc	r27, r19
    4476:	a8 0f       	add	r26, r24
    4478:	b9 1f       	adc	r27, r25
    447a:	1c 96       	adiw	r26, 0x0c	; 12
    447c:	2d 91       	ld	r18, X+
    447e:	3c 91       	ld	r19, X
    4480:	1d 97       	sbiw	r26, 0x0d	; 13
    4482:	21 15       	cp	r18, r1
    4484:	31 05       	cpc	r19, r1
    4486:	09 f4       	brne	.+2      	; 0x448a <menu_save+0x4e>
    4488:	5b c2       	rjmp	.+1206   	; 0x4940 <menu_save+0x504>
    448a:	40 91 60 0c 	lds	r20, 0x0C60
    448e:	44 23       	and	r20, r20
    4490:	09 f0       	breq	.+2      	; 0x4494 <menu_save+0x58>
    4492:	e4 c1       	rjmp	.+968    	; 0x485c <menu_save+0x420>
    4494:	40 81       	ld	r20, Z
    4496:	24 2f       	mov	r18, r20
    4498:	30 e0       	ldi	r19, 0x00	; 0
    449a:	22 0f       	add	r18, r18
    449c:	33 1f       	adc	r19, r19
    449e:	d9 01       	movw	r26, r18
    44a0:	63 e0       	ldi	r22, 0x03	; 3
    44a2:	aa 0f       	add	r26, r26
    44a4:	bb 1f       	adc	r27, r27
    44a6:	6a 95       	dec	r22
    44a8:	e1 f7       	brne	.-8      	; 0x44a2 <menu_save+0x66>
    44aa:	a2 1b       	sub	r26, r18
    44ac:	b3 0b       	sbc	r27, r19
    44ae:	a8 0f       	add	r26, r24
    44b0:	b9 1f       	adc	r27, r25
    44b2:	1b 96       	adiw	r26, 0x0b	; 11
    44b4:	2c 91       	ld	r18, X
    44b6:	1b 97       	sbiw	r26, 0x0b	; 11
    44b8:	21 30       	cpi	r18, 0x01	; 1
    44ba:	09 f0       	breq	.+2      	; 0x44be <menu_save+0x82>
    44bc:	6f c0       	rjmp	.+222    	; 0x459c <menu_save+0x160>
    44be:	40 81       	ld	r20, Z
    44c0:	24 2f       	mov	r18, r20
    44c2:	30 e0       	ldi	r19, 0x00	; 0
    44c4:	22 0f       	add	r18, r18
    44c6:	33 1f       	adc	r19, r19
    44c8:	d9 01       	movw	r26, r18
    44ca:	43 e0       	ldi	r20, 0x03	; 3
    44cc:	aa 0f       	add	r26, r26
    44ce:	bb 1f       	adc	r27, r27
    44d0:	4a 95       	dec	r20
    44d2:	e1 f7       	brne	.-8      	; 0x44cc <menu_save+0x90>
    44d4:	a2 1b       	sub	r26, r18
    44d6:	b3 0b       	sbc	r27, r19
    44d8:	a8 0f       	add	r26, r24
    44da:	b9 1f       	adc	r27, r25
    44dc:	1c 96       	adiw	r26, 0x0c	; 12
    44de:	2d 91       	ld	r18, X+
    44e0:	3c 91       	ld	r19, X
    44e2:	1d 97       	sbiw	r26, 0x0d	; 13
    44e4:	21 15       	cp	r18, r1
    44e6:	31 05       	cpc	r19, r1
    44e8:	09 f4       	brne	.+2      	; 0x44ec <menu_save+0xb0>
    44ea:	2a c2       	rjmp	.+1108   	; 0x4940 <menu_save+0x504>
    44ec:	20 91 72 0c 	lds	r18, 0x0C72
    44f0:	40 81       	ld	r20, Z
    44f2:	e2 2f       	mov	r30, r18
    44f4:	f0 e0       	ldi	r31, 0x00	; 0
    44f6:	ee 0f       	add	r30, r30
    44f8:	ff 1f       	adc	r31, r31
    44fa:	e8 59       	subi	r30, 0x98	; 152
    44fc:	f3 4f       	sbci	r31, 0xF3	; 243
    44fe:	24 2f       	mov	r18, r20
    4500:	30 e0       	ldi	r19, 0x00	; 0
    4502:	22 0f       	add	r18, r18
    4504:	33 1f       	adc	r19, r19
    4506:	d9 01       	movw	r26, r18
    4508:	13 e0       	ldi	r17, 0x03	; 3
    450a:	aa 0f       	add	r26, r26
    450c:	bb 1f       	adc	r27, r27
    450e:	1a 95       	dec	r17
    4510:	e1 f7       	brne	.-8      	; 0x450a <menu_save+0xce>
    4512:	a2 1b       	sub	r26, r18
    4514:	b3 0b       	sbc	r27, r19
    4516:	a8 0f       	add	r26, r24
    4518:	b9 1f       	adc	r27, r25
    451a:	1c 96       	adiw	r26, 0x0c	; 12
    451c:	8d 91       	ld	r24, X+
    451e:	9c 91       	ld	r25, X
    4520:	1d 97       	sbiw	r26, 0x0d	; 13
    4522:	91 83       	std	Z+1, r25	; 0x01
    4524:	80 83       	st	Z, r24
    4526:	e0 91 72 0c 	lds	r30, 0x0C72
    452a:	f0 e0       	ldi	r31, 0x00	; 0
    452c:	ee 0f       	add	r30, r30
    452e:	ff 1f       	adc	r31, r31
    4530:	e8 59       	subi	r30, 0x98	; 152
    4532:	f3 4f       	sbci	r31, 0xF3	; 243
    4534:	01 90       	ld	r0, Z+
    4536:	f0 81       	ld	r31, Z
    4538:	e0 2d       	mov	r30, r0
    453a:	10 82       	st	Z, r1
    453c:	80 91 72 0c 	lds	r24, 0x0C72
    4540:	8f 5f       	subi	r24, 0xFF	; 255
    4542:	80 93 72 0c 	sts	0x0C72, r24
    4546:	e0 91 72 0c 	lds	r30, 0x0C72
    454a:	f0 e0       	ldi	r31, 0x00	; 0
    454c:	ee 0f       	add	r30, r30
    454e:	ff 1f       	adc	r31, r31
    4550:	ea 59       	subi	r30, 0x9A	; 154
    4552:	f3 4f       	sbci	r31, 0xF3	; 243
    4554:	80 81       	ld	r24, Z
    4556:	91 81       	ldd	r25, Z+1	; 0x01
    4558:	0e 94 3a 18 	call	0x3074	; 0x3074 <menu_draw>
    455c:	e0 91 72 0c 	lds	r30, 0x0C72
    4560:	a0 91 72 0c 	lds	r26, 0x0C72
    4564:	b0 e0       	ldi	r27, 0x00	; 0
    4566:	aa 0f       	add	r26, r26
    4568:	bb 1f       	adc	r27, r27
    456a:	aa 59       	subi	r26, 0x9A	; 154
    456c:	b3 4f       	sbci	r27, 0xF3	; 243
    456e:	0d 90       	ld	r0, X+
    4570:	bc 91       	ld	r27, X
    4572:	a0 2d       	mov	r26, r0
    4574:	9c 91       	ld	r25, X
    4576:	f0 e0       	ldi	r31, 0x00	; 0
    4578:	ee 0f       	add	r30, r30
    457a:	ff 1f       	adc	r31, r31
    457c:	ea 59       	subi	r30, 0x9A	; 154
    457e:	f3 4f       	sbci	r31, 0xF3	; 243
    4580:	01 90       	ld	r0, Z+
    4582:	f0 81       	ld	r31, Z
    4584:	e0 2d       	mov	r30, r0
    4586:	8e e0       	ldi	r24, 0x0E	; 14
    4588:	98 9f       	mul	r25, r24
    458a:	c0 01       	movw	r24, r0
    458c:	11 24       	eor	r1, r1
    458e:	22 81       	ldd	r18, Z+2	; 0x02
    4590:	33 81       	ldd	r19, Z+3	; 0x03
    4592:	82 0f       	add	r24, r18
    4594:	93 1f       	adc	r25, r19
    4596:	0e 94 4f 1f 	call	0x3e9e	; 0x3e9e <menu_draw2>
    459a:	d2 c1       	rjmp	.+932    	; 0x4940 <menu_save+0x504>
    459c:	40 81       	ld	r20, Z
    459e:	24 2f       	mov	r18, r20
    45a0:	30 e0       	ldi	r19, 0x00	; 0
    45a2:	22 0f       	add	r18, r18
    45a4:	33 1f       	adc	r19, r19
    45a6:	d9 01       	movw	r26, r18
    45a8:	03 e0       	ldi	r16, 0x03	; 3
    45aa:	aa 0f       	add	r26, r26
    45ac:	bb 1f       	adc	r27, r27
    45ae:	0a 95       	dec	r16
    45b0:	e1 f7       	brne	.-8      	; 0x45aa <menu_save+0x16e>
    45b2:	a2 1b       	sub	r26, r18
    45b4:	b3 0b       	sbc	r27, r19
    45b6:	a8 0f       	add	r26, r24
    45b8:	b9 1f       	adc	r27, r25
    45ba:	1b 96       	adiw	r26, 0x0b	; 11
    45bc:	2c 91       	ld	r18, X
    45be:	1b 97       	sbiw	r26, 0x0b	; 11
    45c0:	23 30       	cpi	r18, 0x03	; 3
    45c2:	29 f5       	brne	.+74     	; 0x460e <menu_save+0x1d2>
    45c4:	40 81       	ld	r20, Z
    45c6:	24 2f       	mov	r18, r20
    45c8:	30 e0       	ldi	r19, 0x00	; 0
    45ca:	22 0f       	add	r18, r18
    45cc:	33 1f       	adc	r19, r19
    45ce:	f9 01       	movw	r30, r18
    45d0:	b3 e0       	ldi	r27, 0x03	; 3
    45d2:	ee 0f       	add	r30, r30
    45d4:	ff 1f       	adc	r31, r31
    45d6:	ba 95       	dec	r27
    45d8:	e1 f7       	brne	.-8      	; 0x45d2 <menu_save+0x196>
    45da:	e2 1b       	sub	r30, r18
    45dc:	f3 0b       	sbc	r31, r19
    45de:	e8 0f       	add	r30, r24
    45e0:	f9 1f       	adc	r31, r25
    45e2:	04 84       	ldd	r0, Z+12	; 0x0c
    45e4:	f5 85       	ldd	r31, Z+13	; 0x0d
    45e6:	e0 2d       	mov	r30, r0
    45e8:	10 92 67 0c 	sts	0x0C67, r1
    45ec:	a1 e6       	ldi	r26, 0x61	; 97
    45ee:	bc e0       	ldi	r27, 0x0C	; 12
    45f0:	80 81       	ld	r24, Z
    45f2:	80 93 61 0c 	sts	0x0C61, r24
    45f6:	81 81       	ldd	r24, Z+1	; 0x01
    45f8:	11 96       	adiw	r26, 0x01	; 1
    45fa:	8c 93       	st	X, r24
    45fc:	11 97       	sbiw	r26, 0x01	; 1
    45fe:	82 81       	ldd	r24, Z+2	; 0x02
    4600:	12 96       	adiw	r26, 0x02	; 2
    4602:	8c 93       	st	X, r24
    4604:	12 97       	sbiw	r26, 0x02	; 2
    4606:	81 e0       	ldi	r24, 0x01	; 1
    4608:	80 93 60 0c 	sts	0x0C60, r24
    460c:	4e c1       	rjmp	.+668    	; 0x48aa <menu_save+0x46e>
    460e:	40 81       	ld	r20, Z
    4610:	24 2f       	mov	r18, r20
    4612:	30 e0       	ldi	r19, 0x00	; 0
    4614:	22 0f       	add	r18, r18
    4616:	33 1f       	adc	r19, r19
    4618:	d9 01       	movw	r26, r18
    461a:	73 e0       	ldi	r23, 0x03	; 3
    461c:	aa 0f       	add	r26, r26
    461e:	bb 1f       	adc	r27, r27
    4620:	7a 95       	dec	r23
    4622:	e1 f7       	brne	.-8      	; 0x461c <menu_save+0x1e0>
    4624:	a2 1b       	sub	r26, r18
    4626:	b3 0b       	sbc	r27, r19
    4628:	a8 0f       	add	r26, r24
    462a:	b9 1f       	adc	r27, r25
    462c:	1b 96       	adiw	r26, 0x0b	; 11
    462e:	4c 91       	ld	r20, X
    4630:	1b 97       	sbiw	r26, 0x0b	; 11
    4632:	42 30       	cpi	r20, 0x02	; 2
    4634:	21 f5       	brne	.+72     	; 0x467e <menu_save+0x242>
    4636:	50 81       	ld	r21, Z
    4638:	25 2f       	mov	r18, r21
    463a:	30 e0       	ldi	r19, 0x00	; 0
    463c:	22 0f       	add	r18, r18
    463e:	33 1f       	adc	r19, r19
    4640:	f9 01       	movw	r30, r18
    4642:	53 e0       	ldi	r21, 0x03	; 3
    4644:	ee 0f       	add	r30, r30
    4646:	ff 1f       	adc	r31, r31
    4648:	5a 95       	dec	r21
    464a:	e1 f7       	brne	.-8      	; 0x4644 <menu_save+0x208>
    464c:	e2 1b       	sub	r30, r18
    464e:	f3 0b       	sbc	r31, r19
    4650:	e8 0f       	add	r30, r24
    4652:	f9 1f       	adc	r31, r25
    4654:	04 84       	ldd	r0, Z+12	; 0x0c
    4656:	f5 85       	ldd	r31, Z+13	; 0x0d
    4658:	e0 2d       	mov	r30, r0
    465a:	10 92 67 0c 	sts	0x0C67, r1
    465e:	a1 e6       	ldi	r26, 0x61	; 97
    4660:	bc e0       	ldi	r27, 0x0C	; 12
    4662:	80 81       	ld	r24, Z
    4664:	80 93 61 0c 	sts	0x0C61, r24
    4668:	81 81       	ldd	r24, Z+1	; 0x01
    466a:	11 96       	adiw	r26, 0x01	; 1
    466c:	8c 93       	st	X, r24
    466e:	11 97       	sbiw	r26, 0x01	; 1
    4670:	82 81       	ldd	r24, Z+2	; 0x02
    4672:	12 96       	adiw	r26, 0x02	; 2
    4674:	8c 93       	st	X, r24
    4676:	12 97       	sbiw	r26, 0x02	; 2
    4678:	40 93 60 0c 	sts	0x0C60, r20
    467c:	22 c1       	rjmp	.+580    	; 0x48c2 <menu_save+0x486>
    467e:	40 81       	ld	r20, Z
    4680:	24 2f       	mov	r18, r20
    4682:	30 e0       	ldi	r19, 0x00	; 0
    4684:	22 0f       	add	r18, r18
    4686:	33 1f       	adc	r19, r19
    4688:	d9 01       	movw	r26, r18
    468a:	13 e0       	ldi	r17, 0x03	; 3
    468c:	aa 0f       	add	r26, r26
    468e:	bb 1f       	adc	r27, r27
    4690:	1a 95       	dec	r17
    4692:	e1 f7       	brne	.-8      	; 0x468c <menu_save+0x250>
    4694:	a2 1b       	sub	r26, r18
    4696:	b3 0b       	sbc	r27, r19
    4698:	a8 0f       	add	r26, r24
    469a:	b9 1f       	adc	r27, r25
    469c:	1b 96       	adiw	r26, 0x0b	; 11
    469e:	2c 91       	ld	r18, X
    46a0:	1b 97       	sbiw	r26, 0x0b	; 11
    46a2:	24 30       	cpi	r18, 0x04	; 4
    46a4:	d1 f5       	brne	.+116    	; 0x471a <menu_save+0x2de>
    46a6:	40 81       	ld	r20, Z
    46a8:	24 2f       	mov	r18, r20
    46aa:	30 e0       	ldi	r19, 0x00	; 0
    46ac:	22 0f       	add	r18, r18
    46ae:	33 1f       	adc	r19, r19
    46b0:	f9 01       	movw	r30, r18
    46b2:	63 e0       	ldi	r22, 0x03	; 3
    46b4:	ee 0f       	add	r30, r30
    46b6:	ff 1f       	adc	r31, r31
    46b8:	6a 95       	dec	r22
    46ba:	e1 f7       	brne	.-8      	; 0x46b4 <menu_save+0x278>
    46bc:	e2 1b       	sub	r30, r18
    46be:	f3 0b       	sbc	r31, r19
    46c0:	e8 0f       	add	r30, r24
    46c2:	f9 1f       	adc	r31, r25
    46c4:	c4 85       	ldd	r28, Z+12	; 0x0c
    46c6:	d5 85       	ldd	r29, Z+13	; 0x0d
    46c8:	10 92 67 0c 	sts	0x0C67, r1
    46cc:	01 e6       	ldi	r16, 0x61	; 97
    46ce:	1c e0       	ldi	r17, 0x0C	; 12
    46d0:	88 81       	ld	r24, Y
    46d2:	80 93 61 0c 	sts	0x0C61, r24
    46d6:	89 81       	ldd	r24, Y+1	; 0x01
    46d8:	f8 01       	movw	r30, r16
    46da:	81 83       	std	Z+1, r24	; 0x01
    46dc:	8a 81       	ldd	r24, Y+2	; 0x02
    46de:	82 83       	std	Z+2, r24	; 0x02
    46e0:	8b 81       	ldd	r24, Y+3	; 0x03
    46e2:	83 83       	std	Z+3, r24	; 0x03
    46e4:	8c 81       	ldd	r24, Y+4	; 0x04
    46e6:	84 83       	std	Z+4, r24	; 0x04
    46e8:	0e 94 de 14 	call	0x29bc	; 0x29bc <led_zeiger_get_active>
    46ec:	f8 01       	movw	r30, r16
    46ee:	85 83       	std	Z+5, r24	; 0x05
    46f0:	fb e0       	ldi	r31, 0x0B	; 11
    46f2:	ca 37       	cpi	r28, 0x7A	; 122
    46f4:	df 07       	cpc	r29, r31
    46f6:	41 f0       	breq	.+16     	; 0x4708 <menu_save+0x2cc>
    46f8:	8b e0       	ldi	r24, 0x0B	; 11
    46fa:	c2 38       	cpi	r28, 0x82	; 130
    46fc:	d8 07       	cpc	r29, r24
    46fe:	21 f0       	breq	.+8      	; 0x4708 <menu_save+0x2cc>
    4700:	eb e0       	ldi	r30, 0x0B	; 11
    4702:	cc 3a       	cpi	r28, 0xAC	; 172
    4704:	de 07       	cpc	r29, r30
    4706:	11 f4       	brne	.+4      	; 0x470c <menu_save+0x2d0>
    4708:	80 e0       	ldi	r24, 0x00	; 0
    470a:	01 c0       	rjmp	.+2      	; 0x470e <menu_save+0x2d2>
    470c:	81 e0       	ldi	r24, 0x01	; 1
    470e:	0e 94 8a 14 	call	0x2914	; 0x2914 <led_zeiger_set_active>
    4712:	83 e0       	ldi	r24, 0x03	; 3
    4714:	80 93 60 0c 	sts	0x0C60, r24
    4718:	fa c0       	rjmp	.+500    	; 0x490e <menu_save+0x4d2>
    471a:	40 81       	ld	r20, Z
    471c:	24 2f       	mov	r18, r20
    471e:	30 e0       	ldi	r19, 0x00	; 0
    4720:	22 0f       	add	r18, r18
    4722:	33 1f       	adc	r19, r19
    4724:	d9 01       	movw	r26, r18
    4726:	43 e0       	ldi	r20, 0x03	; 3
    4728:	aa 0f       	add	r26, r26
    472a:	bb 1f       	adc	r27, r27
    472c:	4a 95       	dec	r20
    472e:	e1 f7       	brne	.-8      	; 0x4728 <menu_save+0x2ec>
    4730:	a2 1b       	sub	r26, r18
    4732:	b3 0b       	sbc	r27, r19
    4734:	a8 0f       	add	r26, r24
    4736:	b9 1f       	adc	r27, r25
    4738:	1b 96       	adiw	r26, 0x0b	; 11
    473a:	2c 91       	ld	r18, X
    473c:	1b 97       	sbiw	r26, 0x0b	; 11
    473e:	26 30       	cpi	r18, 0x06	; 6
    4740:	41 f4       	brne	.+16     	; 0x4752 <menu_save+0x316>
    4742:	81 e0       	ldi	r24, 0x01	; 1
    4744:	0e 94 11 1e 	call	0x3c22	; 0x3c22 <menu_toggle_force_dcf>
    4748:	0e 94 f2 0c 	call	0x19e4	; 0x19e4 <lcd_clear_cs2>
    474c:	0e 94 2c 1e 	call	0x3c58	; 0x3c58 <menu_show_dcf>
    4750:	f5 c0       	rjmp	.+490    	; 0x493c <menu_save+0x500>
    4752:	40 81       	ld	r20, Z
    4754:	24 2f       	mov	r18, r20
    4756:	30 e0       	ldi	r19, 0x00	; 0
    4758:	22 0f       	add	r18, r18
    475a:	33 1f       	adc	r19, r19
    475c:	d9 01       	movw	r26, r18
    475e:	13 e0       	ldi	r17, 0x03	; 3
    4760:	aa 0f       	add	r26, r26
    4762:	bb 1f       	adc	r27, r27
    4764:	1a 95       	dec	r17
    4766:	e1 f7       	brne	.-8      	; 0x4760 <menu_save+0x324>
    4768:	a2 1b       	sub	r26, r18
    476a:	b3 0b       	sbc	r27, r19
    476c:	a8 0f       	add	r26, r24
    476e:	b9 1f       	adc	r27, r25
    4770:	1b 96       	adiw	r26, 0x0b	; 11
    4772:	2c 91       	ld	r18, X
    4774:	1b 97       	sbiw	r26, 0x0b	; 11
    4776:	27 30       	cpi	r18, 0x07	; 7
    4778:	21 f4       	brne	.+8      	; 0x4782 <menu_save+0x346>
    477a:	10 92 67 0c 	sts	0x0C67, r1
    477e:	84 e0       	ldi	r24, 0x04	; 4
    4780:	4f c0       	rjmp	.+158    	; 0x4820 <menu_save+0x3e4>
    4782:	40 81       	ld	r20, Z
    4784:	24 2f       	mov	r18, r20
    4786:	30 e0       	ldi	r19, 0x00	; 0
    4788:	22 0f       	add	r18, r18
    478a:	33 1f       	adc	r19, r19
    478c:	d9 01       	movw	r26, r18
    478e:	63 e0       	ldi	r22, 0x03	; 3
    4790:	aa 0f       	add	r26, r26
    4792:	bb 1f       	adc	r27, r27
    4794:	6a 95       	dec	r22
    4796:	e1 f7       	brne	.-8      	; 0x4790 <menu_save+0x354>
    4798:	a2 1b       	sub	r26, r18
    479a:	b3 0b       	sbc	r27, r19
    479c:	a8 0f       	add	r26, r24
    479e:	b9 1f       	adc	r27, r25
    47a0:	1b 96       	adiw	r26, 0x0b	; 11
    47a2:	2c 91       	ld	r18, X
    47a4:	1b 97       	sbiw	r26, 0x0b	; 11
    47a6:	28 30       	cpi	r18, 0x08	; 8
    47a8:	41 f4       	brne	.+16     	; 0x47ba <menu_save+0x37e>
    47aa:	81 e0       	ldi	r24, 0x01	; 1
    47ac:	0e 94 8c 1e 	call	0x3d18	; 0x3d18 <menu_toggle_wecker>
    47b0:	0e 94 f2 0c 	call	0x19e4	; 0x19e4 <lcd_clear_cs2>
    47b4:	0e 94 a9 1e 	call	0x3d52	; 0x3d52 <menu_show_wecker>
    47b8:	c1 c0       	rjmp	.+386    	; 0x493c <menu_save+0x500>
    47ba:	40 81       	ld	r20, Z
    47bc:	24 2f       	mov	r18, r20
    47be:	30 e0       	ldi	r19, 0x00	; 0
    47c0:	22 0f       	add	r18, r18
    47c2:	33 1f       	adc	r19, r19
    47c4:	d9 01       	movw	r26, r18
    47c6:	43 e0       	ldi	r20, 0x03	; 3
    47c8:	aa 0f       	add	r26, r26
    47ca:	bb 1f       	adc	r27, r27
    47cc:	4a 95       	dec	r20
    47ce:	e1 f7       	brne	.-8      	; 0x47c8 <menu_save+0x38c>
    47d0:	a2 1b       	sub	r26, r18
    47d2:	b3 0b       	sbc	r27, r19
    47d4:	a8 0f       	add	r26, r24
    47d6:	b9 1f       	adc	r27, r25
    47d8:	1b 96       	adiw	r26, 0x0b	; 11
    47da:	2c 91       	ld	r18, X
    47dc:	1b 97       	sbiw	r26, 0x0b	; 11
    47de:	2a 30       	cpi	r18, 0x0A	; 10
    47e0:	41 f4       	brne	.+16     	; 0x47f2 <menu_save+0x3b6>
    47e2:	81 e0       	ldi	r24, 0x01	; 1
    47e4:	0e 94 c7 1e 	call	0x3d8e	; 0x3d8e <menu_toggle_wecker_rep>
    47e8:	0e 94 f2 0c 	call	0x19e4	; 0x19e4 <lcd_clear_cs2>
    47ec:	0e 94 e4 1e 	call	0x3dc8	; 0x3dc8 <menu_show_wecker_rep>
    47f0:	a5 c0       	rjmp	.+330    	; 0x493c <menu_save+0x500>
    47f2:	40 81       	ld	r20, Z
    47f4:	24 2f       	mov	r18, r20
    47f6:	30 e0       	ldi	r19, 0x00	; 0
    47f8:	22 0f       	add	r18, r18
    47fa:	33 1f       	adc	r19, r19
    47fc:	d9 01       	movw	r26, r18
    47fe:	13 e0       	ldi	r17, 0x03	; 3
    4800:	aa 0f       	add	r26, r26
    4802:	bb 1f       	adc	r27, r27
    4804:	1a 95       	dec	r17
    4806:	e1 f7       	brne	.-8      	; 0x4800 <menu_save+0x3c4>
    4808:	a2 1b       	sub	r26, r18
    480a:	b3 0b       	sbc	r27, r19
    480c:	a8 0f       	add	r26, r24
    480e:	b9 1f       	adc	r27, r25
    4810:	1b 96       	adiw	r26, 0x0b	; 11
    4812:	2c 91       	ld	r18, X
    4814:	1b 97       	sbiw	r26, 0x0b	; 11
    4816:	29 30       	cpi	r18, 0x09	; 9
    4818:	41 f4       	brne	.+16     	; 0x482a <menu_save+0x3ee>
    481a:	10 92 67 0c 	sts	0x0C67, r1
    481e:	85 e0       	ldi	r24, 0x05	; 5
    4820:	80 93 60 0c 	sts	0x0C60, r24
    4824:	0e 94 53 1e 	call	0x3ca6	; 0x3ca6 <menu_song_prev>
    4828:	8b c0       	rjmp	.+278    	; 0x4940 <menu_save+0x504>
    482a:	40 81       	ld	r20, Z
    482c:	24 2f       	mov	r18, r20
    482e:	30 e0       	ldi	r19, 0x00	; 0
    4830:	22 0f       	add	r18, r18
    4832:	33 1f       	adc	r19, r19
    4834:	f9 01       	movw	r30, r18
    4836:	73 e0       	ldi	r23, 0x03	; 3
    4838:	ee 0f       	add	r30, r30
    483a:	ff 1f       	adc	r31, r31
    483c:	7a 95       	dec	r23
    483e:	e1 f7       	brne	.-8      	; 0x4838 <menu_save+0x3fc>
    4840:	e2 1b       	sub	r30, r18
    4842:	f3 0b       	sbc	r31, r19
    4844:	e8 0f       	add	r30, r24
    4846:	f9 1f       	adc	r31, r25
    4848:	83 85       	ldd	r24, Z+11	; 0x0b
    484a:	8b 30       	cpi	r24, 0x0B	; 11
    484c:	09 f0       	breq	.+2      	; 0x4850 <menu_save+0x414>
    484e:	78 c0       	rjmp	.+240    	; 0x4940 <menu_save+0x504>
    4850:	0e 94 07 22 	call	0x440e	; 0x440e <menu_toggle_zeiger>
    4854:	81 e0       	ldi	r24, 0x01	; 1
    4856:	80 93 5f 0c 	sts	0x0C5F, r24
    485a:	72 c0       	rjmp	.+228    	; 0x4940 <menu_save+0x504>
    485c:	41 30       	cpi	r20, 0x01	; 1
    485e:	41 f5       	brne	.+80     	; 0x48b0 <menu_save+0x474>
    4860:	20 91 67 0c 	lds	r18, 0x0C67
    4864:	22 30       	cpi	r18, 0x02	; 2
    4866:	f1 f4       	brne	.+60     	; 0x48a4 <menu_save+0x468>
    4868:	50 81       	ld	r21, Z
    486a:	25 2f       	mov	r18, r21
    486c:	30 e0       	ldi	r19, 0x00	; 0
    486e:	22 0f       	add	r18, r18
    4870:	33 1f       	adc	r19, r19
    4872:	f9 01       	movw	r30, r18
    4874:	53 e0       	ldi	r21, 0x03	; 3
    4876:	ee 0f       	add	r30, r30
    4878:	ff 1f       	adc	r31, r31
    487a:	5a 95       	dec	r21
    487c:	e1 f7       	brne	.-8      	; 0x4876 <menu_save+0x43a>
    487e:	e2 1b       	sub	r30, r18
    4880:	f3 0b       	sbc	r31, r19
    4882:	e8 0f       	add	r30, r24
    4884:	f9 1f       	adc	r31, r25
    4886:	04 84       	ldd	r0, Z+12	; 0x0c
    4888:	f5 85       	ldd	r31, Z+13	; 0x0d
    488a:	e0 2d       	mov	r30, r0
    488c:	80 91 61 0c 	lds	r24, 0x0C61
    4890:	80 83       	st	Z, r24
    4892:	80 91 62 0c 	lds	r24, 0x0C62
    4896:	81 83       	std	Z+1, r24	; 0x01
    4898:	80 91 63 0c 	lds	r24, 0x0C63
    489c:	82 83       	std	Z+2, r24	; 0x02
    489e:	40 93 5f 0c 	sts	0x0C5F, r20
    48a2:	22 c0       	rjmp	.+68     	; 0x48e8 <menu_save+0x4ac>
    48a4:	2f 5f       	subi	r18, 0xFF	; 255
    48a6:	20 93 67 0c 	sts	0x0C67, r18
    48aa:	0e 94 94 18 	call	0x3128	; 0x3128 <menu_read_time>
    48ae:	48 c0       	rjmp	.+144    	; 0x4940 <menu_save+0x504>
    48b0:	42 30       	cpi	r20, 0x02	; 2
    48b2:	51 f4       	brne	.+20     	; 0x48c8 <menu_save+0x48c>
    48b4:	80 91 67 0c 	lds	r24, 0x0C67
    48b8:	82 30       	cpi	r24, 0x02	; 2
    48ba:	99 f0       	breq	.+38     	; 0x48e2 <menu_save+0x4a6>
    48bc:	8f 5f       	subi	r24, 0xFF	; 255
    48be:	80 93 67 0c 	sts	0x0C67, r24
    48c2:	0e 94 85 19 	call	0x330a	; 0x330a <menu_read_color>
    48c6:	3c c0       	rjmp	.+120    	; 0x4940 <menu_save+0x504>
    48c8:	43 30       	cpi	r20, 0x03	; 3
    48ca:	21 f5       	brne	.+72     	; 0x4914 <menu_save+0x4d8>
    48cc:	80 91 67 0c 	lds	r24, 0x0C67
    48d0:	84 30       	cpi	r24, 0x04	; 4
    48d2:	d1 f4       	brne	.+52     	; 0x4908 <menu_save+0x4cc>
    48d4:	80 91 66 0c 	lds	r24, 0x0C66
    48d8:	0e 94 8a 14 	call	0x2914	; 0x2914 <led_zeiger_set_active>
    48dc:	81 e0       	ldi	r24, 0x01	; 1
    48de:	0e 94 65 14 	call	0x28ca	; 0x28ca <led_zeiger_recreate>
    48e2:	81 e0       	ldi	r24, 0x01	; 1
    48e4:	80 93 5f 0c 	sts	0x0C5F, r24
    48e8:	10 92 60 0c 	sts	0x0C60, r1
    48ec:	0e 94 f2 0c 	call	0x19e4	; 0x19e4 <lcd_clear_cs2>
    48f0:	e0 91 72 0c 	lds	r30, 0x0C72
    48f4:	f0 e0       	ldi	r31, 0x00	; 0
    48f6:	ee 0f       	add	r30, r30
    48f8:	ff 1f       	adc	r31, r31
    48fa:	ea 59       	subi	r30, 0x9A	; 154
    48fc:	f3 4f       	sbci	r31, 0xF3	; 243
    48fe:	80 81       	ld	r24, Z
    4900:	91 81       	ldd	r25, Z+1	; 0x01
    4902:	0e 94 3a 18 	call	0x3074	; 0x3074 <menu_draw>
    4906:	1c c0       	rjmp	.+56     	; 0x4940 <menu_save+0x504>
    4908:	8f 5f       	subi	r24, 0xFF	; 255
    490a:	80 93 67 0c 	sts	0x0C67, r24
    490e:	0e 94 e5 1b 	call	0x37ca	; 0x37ca <menu_read_hand>
    4912:	16 c0       	rjmp	.+44     	; 0x4940 <menu_save+0x504>
    4914:	44 30       	cpi	r20, 0x04	; 4
    4916:	31 f4       	brne	.+12     	; 0x4924 <menu_save+0x4e8>
    4918:	80 91 67 0c 	lds	r24, 0x0C67
    491c:	60 e0       	ldi	r22, 0x00	; 0
    491e:	0e 94 aa 24 	call	0x4954	; 0x4954 <speaker_start>
    4922:	0e c0       	rjmp	.+28     	; 0x4940 <menu_save+0x504>
    4924:	45 30       	cpi	r20, 0x05	; 5
    4926:	61 f4       	brne	.+24     	; 0x4940 <menu_save+0x504>
    4928:	80 91 67 0c 	lds	r24, 0x0C67
    492c:	80 93 68 06 	sts	0x0668, r24
    4930:	0e 94 c6 24 	call	0x498c	; 0x498c <speaker_stop>
    4934:	10 92 60 0c 	sts	0x0C60, r1
    4938:	0e 94 f2 0c 	call	0x19e4	; 0x19e4 <lcd_clear_cs2>
    493c:	0e 94 37 0d 	call	0x1a6e	; 0x1a6e <lcd_redraw_cs2>
    4940:	df 91       	pop	r29
    4942:	cf 91       	pop	r28
    4944:	1f 91       	pop	r17
    4946:	0f 91       	pop	r16
    4948:	08 95       	ret

0000494a <speaker_init>:
    494a:	10 92 75 0c 	sts	0x0C75, r1
    494e:	10 92 74 0c 	sts	0x0C74, r1
    4952:	08 95       	ret

00004954 <speaker_start>:
    4954:	86 30       	cpi	r24, 0x06	; 6
    4956:	c8 f4       	brcc	.+50     	; 0x498a <speaker_start+0x36>
    4958:	90 91 75 0c 	lds	r25, 0x0C75
    495c:	91 60       	ori	r25, 0x01	; 1
    495e:	90 93 75 0c 	sts	0x0C75, r25
    4962:	12 9a       	sbi	0x02, 2	; 2
    4964:	80 93 74 0c 	sts	0x0C74, r24
    4968:	10 92 76 0c 	sts	0x0C76, r1
    496c:	10 92 73 0c 	sts	0x0C73, r1
    4970:	66 23       	and	r22, r22
    4972:	31 f0       	breq	.+12     	; 0x4980 <speaker_start+0x2c>
    4974:	80 91 75 0c 	lds	r24, 0x0C75
    4978:	82 60       	ori	r24, 0x02	; 2
    497a:	80 93 75 0c 	sts	0x0C75, r24
    497e:	08 95       	ret
    4980:	80 91 75 0c 	lds	r24, 0x0C75
    4984:	8d 7f       	andi	r24, 0xFD	; 253
    4986:	80 93 75 0c 	sts	0x0C75, r24
    498a:	08 95       	ret

0000498c <speaker_stop>:
    498c:	80 91 75 0c 	lds	r24, 0x0C75
    4990:	8e 7f       	andi	r24, 0xFE	; 254
    4992:	80 93 75 0c 	sts	0x0C75, r24
    4996:	08 95       	ret

00004998 <speaker_isplaying>:
    4998:	80 91 75 0c 	lds	r24, 0x0C75
    499c:	81 70       	andi	r24, 0x01	; 1
    499e:	08 95       	ret

000049a0 <speaker_toggle>:
    49a0:	90 91 75 0c 	lds	r25, 0x0C75
    49a4:	90 ff       	sbrs	r25, 0
    49a6:	03 c0       	rjmp	.+6      	; 0x49ae <speaker_toggle+0xe>
    49a8:	0e 94 c6 24 	call	0x498c	; 0x498c <speaker_stop>
    49ac:	08 95       	ret
    49ae:	60 e0       	ldi	r22, 0x00	; 0
    49b0:	0e 94 aa 24 	call	0x4954	; 0x4954 <speaker_start>
    49b4:	08 95       	ret

000049b6 <speaker_speak>:
    49b6:	80 91 75 0c 	lds	r24, 0x0C75
    49ba:	80 ff       	sbrs	r24, 0
    49bc:	dd c0       	rjmp	.+442    	; 0x4b78 <speaker_speak+0x1c2>
    49be:	20 91 da 05 	lds	r18, 0x05DA
    49c2:	30 91 db 05 	lds	r19, 0x05DB
    49c6:	2f 5f       	subi	r18, 0xFF	; 255
    49c8:	3f 4f       	sbci	r19, 0xFF	; 255
    49ca:	30 93 db 05 	sts	0x05DB, r19
    49ce:	20 93 da 05 	sts	0x05DA, r18
    49d2:	80 91 d8 05 	lds	r24, 0x05D8
    49d6:	90 91 d9 05 	lds	r25, 0x05D9
    49da:	00 97       	sbiw	r24, 0x00	; 0
    49dc:	29 f0       	breq	.+10     	; 0x49e8 <speaker_speak+0x32>
    49de:	01 97       	sbiw	r24, 0x01	; 1
    49e0:	90 93 d9 05 	sts	0x05D9, r25
    49e4:	80 93 d8 05 	sts	0x05D8, r24
    49e8:	40 91 74 0c 	lds	r20, 0x0C74
    49ec:	80 91 76 0c 	lds	r24, 0x0C76
    49f0:	50 e0       	ldi	r21, 0x00	; 0
    49f2:	ed e0       	ldi	r30, 0x0D	; 13
    49f4:	f0 e0       	ldi	r31, 0x00	; 0
    49f6:	4e 9f       	mul	r20, r30
    49f8:	d0 01       	movw	r26, r0
    49fa:	4f 9f       	mul	r20, r31
    49fc:	b0 0d       	add	r27, r0
    49fe:	5e 9f       	mul	r21, r30
    4a00:	b0 0d       	add	r27, r0
    4a02:	11 24       	eor	r1, r1
    4a04:	a3 58       	subi	r26, 0x83	; 131
    4a06:	ba 4f       	sbci	r27, 0xFA	; 250
    4a08:	90 e0       	ldi	r25, 0x00	; 0
    4a0a:	88 0f       	add	r24, r24
    4a0c:	99 1f       	adc	r25, r25
    4a0e:	1b 96       	adiw	r26, 0x0b	; 11
    4a10:	0d 90       	ld	r0, X+
    4a12:	bc 91       	ld	r27, X
    4a14:	a0 2d       	mov	r26, r0
    4a16:	a8 0f       	add	r26, r24
    4a18:	b9 1f       	adc	r27, r25
    4a1a:	ac 91       	ld	r26, X
    4a1c:	b0 e0       	ldi	r27, 0x00	; 0
    4a1e:	ae 5e       	subi	r26, 0xEE	; 238
    4a20:	bc 4f       	sbci	r27, 0xFC	; 252
    4a22:	6c 91       	ld	r22, X
    4a24:	c9 01       	movw	r24, r18
    4a26:	70 e0       	ldi	r23, 0x00	; 0
    4a28:	0e 94 c9 25 	call	0x4b92	; 0x4b92 <__udivmodhi4>
    4a2c:	00 97       	sbiw	r24, 0x00	; 0
    4a2e:	29 f5       	brne	.+74     	; 0x4a7a <speaker_speak+0xc4>
    4a30:	40 91 74 0c 	lds	r20, 0x0C74
    4a34:	80 91 76 0c 	lds	r24, 0x0C76
    4a38:	50 e0       	ldi	r21, 0x00	; 0
    4a3a:	4e 9f       	mul	r20, r30
    4a3c:	d0 01       	movw	r26, r0
    4a3e:	4f 9f       	mul	r20, r31
    4a40:	b0 0d       	add	r27, r0
    4a42:	5e 9f       	mul	r21, r30
    4a44:	b0 0d       	add	r27, r0
    4a46:	11 24       	eor	r1, r1
    4a48:	a3 58       	subi	r26, 0x83	; 131
    4a4a:	ba 4f       	sbci	r27, 0xFA	; 250
    4a4c:	90 e0       	ldi	r25, 0x00	; 0
    4a4e:	88 0f       	add	r24, r24
    4a50:	99 1f       	adc	r25, r25
    4a52:	1b 96       	adiw	r26, 0x0b	; 11
    4a54:	ed 91       	ld	r30, X+
    4a56:	fc 91       	ld	r31, X
    4a58:	1c 97       	sbiw	r26, 0x0c	; 12
    4a5a:	e8 0f       	add	r30, r24
    4a5c:	f9 1f       	adc	r31, r25
    4a5e:	80 81       	ld	r24, Z
    4a60:	84 32       	cpi	r24, 0x24	; 36
    4a62:	59 f0       	breq	.+22     	; 0x4a7a <speaker_speak+0xc4>
    4a64:	80 91 d8 05 	lds	r24, 0x05D8
    4a68:	90 91 d9 05 	lds	r25, 0x05D9
    4a6c:	00 97       	sbiw	r24, 0x00	; 0
    4a6e:	29 f4       	brne	.+10     	; 0x4a7a <speaker_speak+0xc4>
    4a70:	2b 9b       	sbis	0x05, 3	; 5
    4a72:	02 c0       	rjmp	.+4      	; 0x4a78 <speaker_speak+0xc2>
    4a74:	2b 98       	cbi	0x05, 3	; 5
    4a76:	01 c0       	rjmp	.+2      	; 0x4a7a <speaker_speak+0xc4>
    4a78:	2b 9a       	sbi	0x05, 3	; 5
    4a7a:	c9 01       	movw	r24, r18
    4a7c:	60 e2       	ldi	r22, 0x20	; 32
    4a7e:	73 e0       	ldi	r23, 0x03	; 3
    4a80:	0e 94 c9 25 	call	0x4b92	; 0x4b92 <__udivmodhi4>
    4a84:	00 97       	sbiw	r24, 0x00	; 0
    4a86:	29 f4       	brne	.+10     	; 0x4a92 <speaker_speak+0xdc>
    4a88:	80 91 73 0c 	lds	r24, 0x0C73
    4a8c:	8f 5f       	subi	r24, 0xFF	; 255
    4a8e:	80 93 73 0c 	sts	0x0C73, r24
    4a92:	60 91 73 0c 	lds	r22, 0x0C73
    4a96:	40 91 74 0c 	lds	r20, 0x0C74
    4a9a:	80 91 76 0c 	lds	r24, 0x0C76
    4a9e:	50 e0       	ldi	r21, 0x00	; 0
    4aa0:	2d e0       	ldi	r18, 0x0D	; 13
    4aa2:	30 e0       	ldi	r19, 0x00	; 0
    4aa4:	42 9f       	mul	r20, r18
    4aa6:	f0 01       	movw	r30, r0
    4aa8:	43 9f       	mul	r20, r19
    4aaa:	f0 0d       	add	r31, r0
    4aac:	52 9f       	mul	r21, r18
    4aae:	f0 0d       	add	r31, r0
    4ab0:	11 24       	eor	r1, r1
    4ab2:	e3 58       	subi	r30, 0x83	; 131
    4ab4:	fa 4f       	sbci	r31, 0xFA	; 250
    4ab6:	90 e0       	ldi	r25, 0x00	; 0
    4ab8:	88 0f       	add	r24, r24
    4aba:	99 1f       	adc	r25, r25
    4abc:	03 84       	ldd	r0, Z+11	; 0x0b
    4abe:	f4 85       	ldd	r31, Z+12	; 0x0c
    4ac0:	e0 2d       	mov	r30, r0
    4ac2:	e8 0f       	add	r30, r24
    4ac4:	f9 1f       	adc	r31, r25
    4ac6:	81 81       	ldd	r24, Z+1	; 0x01
    4ac8:	68 17       	cp	r22, r24
    4aca:	09 f0       	breq	.+2      	; 0x4ace <speaker_speak+0x118>
    4acc:	49 c0       	rjmp	.+146    	; 0x4b60 <speaker_speak+0x1aa>
    4ace:	80 91 76 0c 	lds	r24, 0x0C76
    4ad2:	8f 5f       	subi	r24, 0xFF	; 255
    4ad4:	80 93 76 0c 	sts	0x0C76, r24
    4ad8:	40 91 74 0c 	lds	r20, 0x0C74
    4adc:	80 91 76 0c 	lds	r24, 0x0C76
    4ae0:	50 e0       	ldi	r21, 0x00	; 0
    4ae2:	42 9f       	mul	r20, r18
    4ae4:	f0 01       	movw	r30, r0
    4ae6:	43 9f       	mul	r20, r19
    4ae8:	f0 0d       	add	r31, r0
    4aea:	52 9f       	mul	r21, r18
    4aec:	f0 0d       	add	r31, r0
    4aee:	11 24       	eor	r1, r1
    4af0:	e3 58       	subi	r30, 0x83	; 131
    4af2:	fa 4f       	sbci	r31, 0xFA	; 250
    4af4:	90 e0       	ldi	r25, 0x00	; 0
    4af6:	88 0f       	add	r24, r24
    4af8:	99 1f       	adc	r25, r25
    4afa:	03 84       	ldd	r0, Z+11	; 0x0b
    4afc:	f4 85       	ldd	r31, Z+12	; 0x0c
    4afe:	e0 2d       	mov	r30, r0
    4b00:	e8 0f       	add	r30, r24
    4b02:	f9 1f       	adc	r31, r25
    4b04:	80 81       	ld	r24, Z
    4b06:	88 23       	and	r24, r24
    4b08:	11 f5       	brne	.+68     	; 0x4b4e <speaker_speak+0x198>
    4b0a:	40 91 74 0c 	lds	r20, 0x0C74
    4b0e:	80 91 76 0c 	lds	r24, 0x0C76
    4b12:	50 e0       	ldi	r21, 0x00	; 0
    4b14:	42 9f       	mul	r20, r18
    4b16:	f0 01       	movw	r30, r0
    4b18:	43 9f       	mul	r20, r19
    4b1a:	f0 0d       	add	r31, r0
    4b1c:	52 9f       	mul	r21, r18
    4b1e:	f0 0d       	add	r31, r0
    4b20:	11 24       	eor	r1, r1
    4b22:	e3 58       	subi	r30, 0x83	; 131
    4b24:	fa 4f       	sbci	r31, 0xFA	; 250
    4b26:	90 e0       	ldi	r25, 0x00	; 0
    4b28:	88 0f       	add	r24, r24
    4b2a:	99 1f       	adc	r25, r25
    4b2c:	03 84       	ldd	r0, Z+11	; 0x0b
    4b2e:	f4 85       	ldd	r31, Z+12	; 0x0c
    4b30:	e0 2d       	mov	r30, r0
    4b32:	e8 0f       	add	r30, r24
    4b34:	f9 1f       	adc	r31, r25
    4b36:	81 81       	ldd	r24, Z+1	; 0x01
    4b38:	88 23       	and	r24, r24
    4b3a:	49 f4       	brne	.+18     	; 0x4b4e <speaker_speak+0x198>
    4b3c:	80 91 75 0c 	lds	r24, 0x0C75
    4b40:	81 ff       	sbrs	r24, 1
    4b42:	03 c0       	rjmp	.+6      	; 0x4b4a <speaker_speak+0x194>
    4b44:	10 92 76 0c 	sts	0x0C76, r1
    4b48:	02 c0       	rjmp	.+4      	; 0x4b4e <speaker_speak+0x198>
    4b4a:	0e 94 c6 24 	call	0x498c	; 0x498c <speaker_stop>
    4b4e:	2b 98       	cbi	0x05, 3	; 5
    4b50:	10 92 73 0c 	sts	0x0C73, r1
    4b54:	8a ef       	ldi	r24, 0xFA	; 250
    4b56:	90 e0       	ldi	r25, 0x00	; 0
    4b58:	90 93 d9 05 	sts	0x05D9, r25
    4b5c:	80 93 d8 05 	sts	0x05D8, r24
    4b60:	80 91 da 05 	lds	r24, 0x05DA
    4b64:	90 91 db 05 	lds	r25, 0x05DB
    4b68:	29 e1       	ldi	r18, 0x19	; 25
    4b6a:	80 30       	cpi	r24, 0x00	; 0
    4b6c:	92 07       	cpc	r25, r18
    4b6e:	21 f4       	brne	.+8      	; 0x4b78 <speaker_speak+0x1c2>
    4b70:	10 92 db 05 	sts	0x05DB, r1
    4b74:	10 92 da 05 	sts	0x05DA, r1
    4b78:	08 95       	ret

00004b7a <__udivmodqi4>:
    4b7a:	99 1b       	sub	r25, r25
    4b7c:	79 e0       	ldi	r23, 0x09	; 9
    4b7e:	04 c0       	rjmp	.+8      	; 0x4b88 <__udivmodqi4_ep>

00004b80 <__udivmodqi4_loop>:
    4b80:	99 1f       	adc	r25, r25
    4b82:	96 17       	cp	r25, r22
    4b84:	08 f0       	brcs	.+2      	; 0x4b88 <__udivmodqi4_ep>
    4b86:	96 1b       	sub	r25, r22

00004b88 <__udivmodqi4_ep>:
    4b88:	88 1f       	adc	r24, r24
    4b8a:	7a 95       	dec	r23
    4b8c:	c9 f7       	brne	.-14     	; 0x4b80 <__udivmodqi4_loop>
    4b8e:	80 95       	com	r24
    4b90:	08 95       	ret

00004b92 <__udivmodhi4>:
    4b92:	aa 1b       	sub	r26, r26
    4b94:	bb 1b       	sub	r27, r27
    4b96:	51 e1       	ldi	r21, 0x11	; 17
    4b98:	07 c0       	rjmp	.+14     	; 0x4ba8 <__udivmodhi4_ep>

00004b9a <__udivmodhi4_loop>:
    4b9a:	aa 1f       	adc	r26, r26
    4b9c:	bb 1f       	adc	r27, r27
    4b9e:	a6 17       	cp	r26, r22
    4ba0:	b7 07       	cpc	r27, r23
    4ba2:	10 f0       	brcs	.+4      	; 0x4ba8 <__udivmodhi4_ep>
    4ba4:	a6 1b       	sub	r26, r22
    4ba6:	b7 0b       	sbc	r27, r23

00004ba8 <__udivmodhi4_ep>:
    4ba8:	88 1f       	adc	r24, r24
    4baa:	99 1f       	adc	r25, r25
    4bac:	5a 95       	dec	r21
    4bae:	a9 f7       	brne	.-22     	; 0x4b9a <__udivmodhi4_loop>
    4bb0:	80 95       	com	r24
    4bb2:	90 95       	com	r25
    4bb4:	bc 01       	movw	r22, r24
    4bb6:	cd 01       	movw	r24, r26
    4bb8:	08 95       	ret

00004bba <__divmodhi4>:
    4bba:	97 fb       	bst	r25, 7
    4bbc:	09 2e       	mov	r0, r25
    4bbe:	07 26       	eor	r0, r23
    4bc0:	0a d0       	rcall	.+20     	; 0x4bd6 <__divmodhi4_neg1>
    4bc2:	77 fd       	sbrc	r23, 7
    4bc4:	04 d0       	rcall	.+8      	; 0x4bce <__divmodhi4_neg2>
    4bc6:	e5 df       	rcall	.-54     	; 0x4b92 <__udivmodhi4>
    4bc8:	06 d0       	rcall	.+12     	; 0x4bd6 <__divmodhi4_neg1>
    4bca:	00 20       	and	r0, r0
    4bcc:	1a f4       	brpl	.+6      	; 0x4bd4 <__divmodhi4_exit>

00004bce <__divmodhi4_neg2>:
    4bce:	70 95       	com	r23
    4bd0:	61 95       	neg	r22
    4bd2:	7f 4f       	sbci	r23, 0xFF	; 255

00004bd4 <__divmodhi4_exit>:
    4bd4:	08 95       	ret

00004bd6 <__divmodhi4_neg1>:
    4bd6:	f6 f7       	brtc	.-4      	; 0x4bd4 <__divmodhi4_exit>
    4bd8:	90 95       	com	r25
    4bda:	81 95       	neg	r24
    4bdc:	9f 4f       	sbci	r25, 0xFF	; 255
    4bde:	08 95       	ret

00004be0 <sprintf>:
    4be0:	ae e0       	ldi	r26, 0x0E	; 14
    4be2:	b0 e0       	ldi	r27, 0x00	; 0
    4be4:	e6 ef       	ldi	r30, 0xF6	; 246
    4be6:	f5 e2       	ldi	r31, 0x25	; 37
    4be8:	0c 94 d0 28 	jmp	0x51a0	; 0x51a0 <__prologue_saves__+0x1c>
    4bec:	0d 89       	ldd	r16, Y+21	; 0x15
    4bee:	1e 89       	ldd	r17, Y+22	; 0x16
    4bf0:	86 e0       	ldi	r24, 0x06	; 6
    4bf2:	8c 83       	std	Y+4, r24	; 0x04
    4bf4:	1a 83       	std	Y+2, r17	; 0x02
    4bf6:	09 83       	std	Y+1, r16	; 0x01
    4bf8:	8f ef       	ldi	r24, 0xFF	; 255
    4bfa:	9f e7       	ldi	r25, 0x7F	; 127
    4bfc:	9e 83       	std	Y+6, r25	; 0x06
    4bfe:	8d 83       	std	Y+5, r24	; 0x05
    4c00:	9e 01       	movw	r18, r28
    4c02:	27 5e       	subi	r18, 0xE7	; 231
    4c04:	3f 4f       	sbci	r19, 0xFF	; 255
    4c06:	ce 01       	movw	r24, r28
    4c08:	01 96       	adiw	r24, 0x01	; 1
    4c0a:	6f 89       	ldd	r22, Y+23	; 0x17
    4c0c:	78 8d       	ldd	r23, Y+24	; 0x18
    4c0e:	a9 01       	movw	r20, r18
    4c10:	0e 94 13 26 	call	0x4c26	; 0x4c26 <vfprintf>
    4c14:	ef 81       	ldd	r30, Y+7	; 0x07
    4c16:	f8 85       	ldd	r31, Y+8	; 0x08
    4c18:	e0 0f       	add	r30, r16
    4c1a:	f1 1f       	adc	r31, r17
    4c1c:	10 82       	st	Z, r1
    4c1e:	2e 96       	adiw	r28, 0x0e	; 14
    4c20:	e4 e0       	ldi	r30, 0x04	; 4
    4c22:	0c 94 ec 28 	jmp	0x51d8	; 0x51d8 <__epilogue_restores__+0x1c>

00004c26 <vfprintf>:
    4c26:	ac e0       	ldi	r26, 0x0C	; 12
    4c28:	b0 e0       	ldi	r27, 0x00	; 0
    4c2a:	e9 e1       	ldi	r30, 0x19	; 25
    4c2c:	f6 e2       	ldi	r31, 0x26	; 38
    4c2e:	0c 94 c2 28 	jmp	0x5184	; 0x5184 <__prologue_saves__>
    4c32:	6c 01       	movw	r12, r24
    4c34:	1b 01       	movw	r2, r22
    4c36:	8a 01       	movw	r16, r20
    4c38:	fc 01       	movw	r30, r24
    4c3a:	17 82       	std	Z+7, r1	; 0x07
    4c3c:	16 82       	std	Z+6, r1	; 0x06
    4c3e:	83 81       	ldd	r24, Z+3	; 0x03
    4c40:	81 ff       	sbrs	r24, 1
    4c42:	d1 c1       	rjmp	.+930    	; 0x4fe6 <vfprintf+0x3c0>
    4c44:	2e 01       	movw	r4, r28
    4c46:	08 94       	sec
    4c48:	41 1c       	adc	r4, r1
    4c4a:	51 1c       	adc	r5, r1
    4c4c:	f6 01       	movw	r30, r12
    4c4e:	93 81       	ldd	r25, Z+3	; 0x03
    4c50:	f1 01       	movw	r30, r2
    4c52:	93 fd       	sbrc	r25, 3
    4c54:	85 91       	lpm	r24, Z+
    4c56:	93 ff       	sbrs	r25, 3
    4c58:	81 91       	ld	r24, Z+
    4c5a:	1f 01       	movw	r2, r30
    4c5c:	88 23       	and	r24, r24
    4c5e:	09 f4       	brne	.+2      	; 0x4c62 <vfprintf+0x3c>
    4c60:	be c1       	rjmp	.+892    	; 0x4fde <vfprintf+0x3b8>
    4c62:	85 32       	cpi	r24, 0x25	; 37
    4c64:	39 f4       	brne	.+14     	; 0x4c74 <vfprintf+0x4e>
    4c66:	93 fd       	sbrc	r25, 3
    4c68:	85 91       	lpm	r24, Z+
    4c6a:	93 ff       	sbrs	r25, 3
    4c6c:	81 91       	ld	r24, Z+
    4c6e:	1f 01       	movw	r2, r30
    4c70:	85 32       	cpi	r24, 0x25	; 37
    4c72:	29 f4       	brne	.+10     	; 0x4c7e <vfprintf+0x58>
    4c74:	90 e0       	ldi	r25, 0x00	; 0
    4c76:	b6 01       	movw	r22, r12
    4c78:	0e 94 38 28 	call	0x5070	; 0x5070 <fputc>
    4c7c:	e7 cf       	rjmp	.-50     	; 0x4c4c <vfprintf+0x26>
    4c7e:	ee 24       	eor	r14, r14
    4c80:	ff 24       	eor	r15, r15
    4c82:	20 e0       	ldi	r18, 0x00	; 0
    4c84:	20 32       	cpi	r18, 0x20	; 32
    4c86:	b0 f4       	brcc	.+44     	; 0x4cb4 <vfprintf+0x8e>
    4c88:	8b 32       	cpi	r24, 0x2B	; 43
    4c8a:	69 f0       	breq	.+26     	; 0x4ca6 <vfprintf+0x80>
    4c8c:	8c 32       	cpi	r24, 0x2C	; 44
    4c8e:	28 f4       	brcc	.+10     	; 0x4c9a <vfprintf+0x74>
    4c90:	80 32       	cpi	r24, 0x20	; 32
    4c92:	51 f0       	breq	.+20     	; 0x4ca8 <vfprintf+0x82>
    4c94:	83 32       	cpi	r24, 0x23	; 35
    4c96:	71 f4       	brne	.+28     	; 0x4cb4 <vfprintf+0x8e>
    4c98:	0b c0       	rjmp	.+22     	; 0x4cb0 <vfprintf+0x8a>
    4c9a:	8d 32       	cpi	r24, 0x2D	; 45
    4c9c:	39 f0       	breq	.+14     	; 0x4cac <vfprintf+0x86>
    4c9e:	80 33       	cpi	r24, 0x30	; 48
    4ca0:	49 f4       	brne	.+18     	; 0x4cb4 <vfprintf+0x8e>
    4ca2:	21 60       	ori	r18, 0x01	; 1
    4ca4:	2c c0       	rjmp	.+88     	; 0x4cfe <vfprintf+0xd8>
    4ca6:	22 60       	ori	r18, 0x02	; 2
    4ca8:	24 60       	ori	r18, 0x04	; 4
    4caa:	29 c0       	rjmp	.+82     	; 0x4cfe <vfprintf+0xd8>
    4cac:	28 60       	ori	r18, 0x08	; 8
    4cae:	27 c0       	rjmp	.+78     	; 0x4cfe <vfprintf+0xd8>
    4cb0:	20 61       	ori	r18, 0x10	; 16
    4cb2:	25 c0       	rjmp	.+74     	; 0x4cfe <vfprintf+0xd8>
    4cb4:	27 fd       	sbrc	r18, 7
    4cb6:	2c c0       	rjmp	.+88     	; 0x4d10 <vfprintf+0xea>
    4cb8:	38 2f       	mov	r19, r24
    4cba:	30 53       	subi	r19, 0x30	; 48
    4cbc:	3a 30       	cpi	r19, 0x0A	; 10
    4cbe:	98 f4       	brcc	.+38     	; 0x4ce6 <vfprintf+0xc0>
    4cc0:	26 ff       	sbrs	r18, 6
    4cc2:	08 c0       	rjmp	.+16     	; 0x4cd4 <vfprintf+0xae>
    4cc4:	8e 2d       	mov	r24, r14
    4cc6:	88 0f       	add	r24, r24
    4cc8:	e8 2e       	mov	r14, r24
    4cca:	ee 0c       	add	r14, r14
    4ccc:	ee 0c       	add	r14, r14
    4cce:	e8 0e       	add	r14, r24
    4cd0:	e3 0e       	add	r14, r19
    4cd2:	15 c0       	rjmp	.+42     	; 0x4cfe <vfprintf+0xd8>
    4cd4:	8f 2d       	mov	r24, r15
    4cd6:	88 0f       	add	r24, r24
    4cd8:	f8 2e       	mov	r15, r24
    4cda:	ff 0c       	add	r15, r15
    4cdc:	ff 0c       	add	r15, r15
    4cde:	f8 0e       	add	r15, r24
    4ce0:	f3 0e       	add	r15, r19
    4ce2:	20 62       	ori	r18, 0x20	; 32
    4ce4:	0c c0       	rjmp	.+24     	; 0x4cfe <vfprintf+0xd8>
    4ce6:	8e 32       	cpi	r24, 0x2E	; 46
    4ce8:	21 f4       	brne	.+8      	; 0x4cf2 <vfprintf+0xcc>
    4cea:	26 fd       	sbrc	r18, 6
    4cec:	78 c1       	rjmp	.+752    	; 0x4fde <vfprintf+0x3b8>
    4cee:	20 64       	ori	r18, 0x40	; 64
    4cf0:	06 c0       	rjmp	.+12     	; 0x4cfe <vfprintf+0xd8>
    4cf2:	8c 36       	cpi	r24, 0x6C	; 108
    4cf4:	11 f4       	brne	.+4      	; 0x4cfa <vfprintf+0xd4>
    4cf6:	20 68       	ori	r18, 0x80	; 128
    4cf8:	02 c0       	rjmp	.+4      	; 0x4cfe <vfprintf+0xd8>
    4cfa:	88 36       	cpi	r24, 0x68	; 104
    4cfc:	49 f4       	brne	.+18     	; 0x4d10 <vfprintf+0xea>
    4cfe:	f1 01       	movw	r30, r2
    4d00:	93 fd       	sbrc	r25, 3
    4d02:	85 91       	lpm	r24, Z+
    4d04:	93 ff       	sbrs	r25, 3
    4d06:	81 91       	ld	r24, Z+
    4d08:	1f 01       	movw	r2, r30
    4d0a:	88 23       	and	r24, r24
    4d0c:	09 f0       	breq	.+2      	; 0x4d10 <vfprintf+0xea>
    4d0e:	ba cf       	rjmp	.-140    	; 0x4c84 <vfprintf+0x5e>
    4d10:	98 2f       	mov	r25, r24
    4d12:	95 54       	subi	r25, 0x45	; 69
    4d14:	93 30       	cpi	r25, 0x03	; 3
    4d16:	18 f0       	brcs	.+6      	; 0x4d1e <vfprintf+0xf8>
    4d18:	90 52       	subi	r25, 0x20	; 32
    4d1a:	93 30       	cpi	r25, 0x03	; 3
    4d1c:	28 f4       	brcc	.+10     	; 0x4d28 <vfprintf+0x102>
    4d1e:	0c 5f       	subi	r16, 0xFC	; 252
    4d20:	1f 4f       	sbci	r17, 0xFF	; 255
    4d22:	ff e3       	ldi	r31, 0x3F	; 63
    4d24:	f9 83       	std	Y+1, r31	; 0x01
    4d26:	0d c0       	rjmp	.+26     	; 0x4d42 <vfprintf+0x11c>
    4d28:	83 36       	cpi	r24, 0x63	; 99
    4d2a:	31 f0       	breq	.+12     	; 0x4d38 <vfprintf+0x112>
    4d2c:	83 37       	cpi	r24, 0x73	; 115
    4d2e:	71 f0       	breq	.+28     	; 0x4d4c <vfprintf+0x126>
    4d30:	83 35       	cpi	r24, 0x53	; 83
    4d32:	09 f0       	breq	.+2      	; 0x4d36 <vfprintf+0x110>
    4d34:	60 c0       	rjmp	.+192    	; 0x4df6 <vfprintf+0x1d0>
    4d36:	22 c0       	rjmp	.+68     	; 0x4d7c <vfprintf+0x156>
    4d38:	f8 01       	movw	r30, r16
    4d3a:	80 81       	ld	r24, Z
    4d3c:	89 83       	std	Y+1, r24	; 0x01
    4d3e:	0e 5f       	subi	r16, 0xFE	; 254
    4d40:	1f 4f       	sbci	r17, 0xFF	; 255
    4d42:	42 01       	movw	r8, r4
    4d44:	71 e0       	ldi	r23, 0x01	; 1
    4d46:	a7 2e       	mov	r10, r23
    4d48:	b1 2c       	mov	r11, r1
    4d4a:	16 c0       	rjmp	.+44     	; 0x4d78 <vfprintf+0x152>
    4d4c:	62 e0       	ldi	r22, 0x02	; 2
    4d4e:	66 2e       	mov	r6, r22
    4d50:	71 2c       	mov	r7, r1
    4d52:	60 0e       	add	r6, r16
    4d54:	71 1e       	adc	r7, r17
    4d56:	f8 01       	movw	r30, r16
    4d58:	80 80       	ld	r8, Z
    4d5a:	91 80       	ldd	r9, Z+1	; 0x01
    4d5c:	26 ff       	sbrs	r18, 6
    4d5e:	03 c0       	rjmp	.+6      	; 0x4d66 <vfprintf+0x140>
    4d60:	6e 2d       	mov	r22, r14
    4d62:	70 e0       	ldi	r23, 0x00	; 0
    4d64:	02 c0       	rjmp	.+4      	; 0x4d6a <vfprintf+0x144>
    4d66:	6f ef       	ldi	r22, 0xFF	; 255
    4d68:	7f ef       	ldi	r23, 0xFF	; 255
    4d6a:	c4 01       	movw	r24, r8
    4d6c:	2c 87       	std	Y+12, r18	; 0x0c
    4d6e:	0e 94 2d 28 	call	0x505a	; 0x505a <strnlen>
    4d72:	5c 01       	movw	r10, r24
    4d74:	83 01       	movw	r16, r6
    4d76:	2c 85       	ldd	r18, Y+12	; 0x0c
    4d78:	2f 77       	andi	r18, 0x7F	; 127
    4d7a:	17 c0       	rjmp	.+46     	; 0x4daa <vfprintf+0x184>
    4d7c:	52 e0       	ldi	r21, 0x02	; 2
    4d7e:	65 2e       	mov	r6, r21
    4d80:	71 2c       	mov	r7, r1
    4d82:	60 0e       	add	r6, r16
    4d84:	71 1e       	adc	r7, r17
    4d86:	f8 01       	movw	r30, r16
    4d88:	80 80       	ld	r8, Z
    4d8a:	91 80       	ldd	r9, Z+1	; 0x01
    4d8c:	26 ff       	sbrs	r18, 6
    4d8e:	03 c0       	rjmp	.+6      	; 0x4d96 <vfprintf+0x170>
    4d90:	6e 2d       	mov	r22, r14
    4d92:	70 e0       	ldi	r23, 0x00	; 0
    4d94:	02 c0       	rjmp	.+4      	; 0x4d9a <vfprintf+0x174>
    4d96:	6f ef       	ldi	r22, 0xFF	; 255
    4d98:	7f ef       	ldi	r23, 0xFF	; 255
    4d9a:	c4 01       	movw	r24, r8
    4d9c:	2c 87       	std	Y+12, r18	; 0x0c
    4d9e:	0e 94 22 28 	call	0x5044	; 0x5044 <strnlen_P>
    4da2:	5c 01       	movw	r10, r24
    4da4:	2c 85       	ldd	r18, Y+12	; 0x0c
    4da6:	20 68       	ori	r18, 0x80	; 128
    4da8:	83 01       	movw	r16, r6
    4daa:	23 fd       	sbrc	r18, 3
    4dac:	20 c0       	rjmp	.+64     	; 0x4dee <vfprintf+0x1c8>
    4dae:	08 c0       	rjmp	.+16     	; 0x4dc0 <vfprintf+0x19a>
    4db0:	80 e2       	ldi	r24, 0x20	; 32
    4db2:	90 e0       	ldi	r25, 0x00	; 0
    4db4:	b6 01       	movw	r22, r12
    4db6:	2c 87       	std	Y+12, r18	; 0x0c
    4db8:	0e 94 38 28 	call	0x5070	; 0x5070 <fputc>
    4dbc:	fa 94       	dec	r15
    4dbe:	2c 85       	ldd	r18, Y+12	; 0x0c
    4dc0:	8f 2d       	mov	r24, r15
    4dc2:	90 e0       	ldi	r25, 0x00	; 0
    4dc4:	a8 16       	cp	r10, r24
    4dc6:	b9 06       	cpc	r11, r25
    4dc8:	98 f3       	brcs	.-26     	; 0x4db0 <vfprintf+0x18a>
    4dca:	11 c0       	rjmp	.+34     	; 0x4dee <vfprintf+0x1c8>
    4dcc:	f4 01       	movw	r30, r8
    4dce:	27 fd       	sbrc	r18, 7
    4dd0:	85 91       	lpm	r24, Z+
    4dd2:	27 ff       	sbrs	r18, 7
    4dd4:	81 91       	ld	r24, Z+
    4dd6:	4f 01       	movw	r8, r30
    4dd8:	90 e0       	ldi	r25, 0x00	; 0
    4dda:	b6 01       	movw	r22, r12
    4ddc:	2c 87       	std	Y+12, r18	; 0x0c
    4dde:	0e 94 38 28 	call	0x5070	; 0x5070 <fputc>
    4de2:	2c 85       	ldd	r18, Y+12	; 0x0c
    4de4:	f1 10       	cpse	r15, r1
    4de6:	fa 94       	dec	r15
    4de8:	08 94       	sec
    4dea:	a1 08       	sbc	r10, r1
    4dec:	b1 08       	sbc	r11, r1
    4dee:	a1 14       	cp	r10, r1
    4df0:	b1 04       	cpc	r11, r1
    4df2:	61 f7       	brne	.-40     	; 0x4dcc <vfprintf+0x1a6>
    4df4:	f1 c0       	rjmp	.+482    	; 0x4fd8 <vfprintf+0x3b2>
    4df6:	84 36       	cpi	r24, 0x64	; 100
    4df8:	11 f0       	breq	.+4      	; 0x4dfe <vfprintf+0x1d8>
    4dfa:	89 36       	cpi	r24, 0x69	; 105
    4dfc:	49 f5       	brne	.+82     	; 0x4e50 <vfprintf+0x22a>
    4dfe:	27 ff       	sbrs	r18, 7
    4e00:	08 c0       	rjmp	.+16     	; 0x4e12 <vfprintf+0x1ec>
    4e02:	f8 01       	movw	r30, r16
    4e04:	60 81       	ld	r22, Z
    4e06:	71 81       	ldd	r23, Z+1	; 0x01
    4e08:	82 81       	ldd	r24, Z+2	; 0x02
    4e0a:	93 81       	ldd	r25, Z+3	; 0x03
    4e0c:	0c 5f       	subi	r16, 0xFC	; 252
    4e0e:	1f 4f       	sbci	r17, 0xFF	; 255
    4e10:	09 c0       	rjmp	.+18     	; 0x4e24 <vfprintf+0x1fe>
    4e12:	f8 01       	movw	r30, r16
    4e14:	60 81       	ld	r22, Z
    4e16:	71 81       	ldd	r23, Z+1	; 0x01
    4e18:	88 27       	eor	r24, r24
    4e1a:	77 fd       	sbrc	r23, 7
    4e1c:	80 95       	com	r24
    4e1e:	98 2f       	mov	r25, r24
    4e20:	0e 5f       	subi	r16, 0xFE	; 254
    4e22:	1f 4f       	sbci	r17, 0xFF	; 255
    4e24:	4f e6       	ldi	r20, 0x6F	; 111
    4e26:	b4 2e       	mov	r11, r20
    4e28:	b2 22       	and	r11, r18
    4e2a:	97 ff       	sbrs	r25, 7
    4e2c:	09 c0       	rjmp	.+18     	; 0x4e40 <vfprintf+0x21a>
    4e2e:	90 95       	com	r25
    4e30:	80 95       	com	r24
    4e32:	70 95       	com	r23
    4e34:	61 95       	neg	r22
    4e36:	7f 4f       	sbci	r23, 0xFF	; 255
    4e38:	8f 4f       	sbci	r24, 0xFF	; 255
    4e3a:	9f 4f       	sbci	r25, 0xFF	; 255
    4e3c:	f0 e8       	ldi	r31, 0x80	; 128
    4e3e:	bf 2a       	or	r11, r31
    4e40:	a2 01       	movw	r20, r4
    4e42:	2a e0       	ldi	r18, 0x0A	; 10
    4e44:	30 e0       	ldi	r19, 0x00	; 0
    4e46:	0e 94 64 28 	call	0x50c8	; 0x50c8 <__ultoa_invert>
    4e4a:	78 2e       	mov	r7, r24
    4e4c:	74 18       	sub	r7, r4
    4e4e:	45 c0       	rjmp	.+138    	; 0x4eda <vfprintf+0x2b4>
    4e50:	85 37       	cpi	r24, 0x75	; 117
    4e52:	31 f4       	brne	.+12     	; 0x4e60 <vfprintf+0x23a>
    4e54:	3f ee       	ldi	r19, 0xEF	; 239
    4e56:	b3 2e       	mov	r11, r19
    4e58:	b2 22       	and	r11, r18
    4e5a:	2a e0       	ldi	r18, 0x0A	; 10
    4e5c:	30 e0       	ldi	r19, 0x00	; 0
    4e5e:	25 c0       	rjmp	.+74     	; 0x4eaa <vfprintf+0x284>
    4e60:	99 ef       	ldi	r25, 0xF9	; 249
    4e62:	b9 2e       	mov	r11, r25
    4e64:	b2 22       	and	r11, r18
    4e66:	8f 36       	cpi	r24, 0x6F	; 111
    4e68:	c1 f0       	breq	.+48     	; 0x4e9a <vfprintf+0x274>
    4e6a:	80 37       	cpi	r24, 0x70	; 112
    4e6c:	20 f4       	brcc	.+8      	; 0x4e76 <vfprintf+0x250>
    4e6e:	88 35       	cpi	r24, 0x58	; 88
    4e70:	09 f0       	breq	.+2      	; 0x4e74 <vfprintf+0x24e>
    4e72:	b5 c0       	rjmp	.+362    	; 0x4fde <vfprintf+0x3b8>
    4e74:	0d c0       	rjmp	.+26     	; 0x4e90 <vfprintf+0x26a>
    4e76:	80 37       	cpi	r24, 0x70	; 112
    4e78:	21 f0       	breq	.+8      	; 0x4e82 <vfprintf+0x25c>
    4e7a:	88 37       	cpi	r24, 0x78	; 120
    4e7c:	09 f0       	breq	.+2      	; 0x4e80 <vfprintf+0x25a>
    4e7e:	af c0       	rjmp	.+350    	; 0x4fde <vfprintf+0x3b8>
    4e80:	02 c0       	rjmp	.+4      	; 0x4e86 <vfprintf+0x260>
    4e82:	20 e1       	ldi	r18, 0x10	; 16
    4e84:	b2 2a       	or	r11, r18
    4e86:	b4 fe       	sbrs	r11, 4
    4e88:	0b c0       	rjmp	.+22     	; 0x4ea0 <vfprintf+0x27a>
    4e8a:	84 e0       	ldi	r24, 0x04	; 4
    4e8c:	b8 2a       	or	r11, r24
    4e8e:	08 c0       	rjmp	.+16     	; 0x4ea0 <vfprintf+0x27a>
    4e90:	b4 fe       	sbrs	r11, 4
    4e92:	09 c0       	rjmp	.+18     	; 0x4ea6 <vfprintf+0x280>
    4e94:	e6 e0       	ldi	r30, 0x06	; 6
    4e96:	be 2a       	or	r11, r30
    4e98:	06 c0       	rjmp	.+12     	; 0x4ea6 <vfprintf+0x280>
    4e9a:	28 e0       	ldi	r18, 0x08	; 8
    4e9c:	30 e0       	ldi	r19, 0x00	; 0
    4e9e:	05 c0       	rjmp	.+10     	; 0x4eaa <vfprintf+0x284>
    4ea0:	20 e1       	ldi	r18, 0x10	; 16
    4ea2:	30 e0       	ldi	r19, 0x00	; 0
    4ea4:	02 c0       	rjmp	.+4      	; 0x4eaa <vfprintf+0x284>
    4ea6:	20 e1       	ldi	r18, 0x10	; 16
    4ea8:	32 e0       	ldi	r19, 0x02	; 2
    4eaa:	b7 fe       	sbrs	r11, 7
    4eac:	08 c0       	rjmp	.+16     	; 0x4ebe <vfprintf+0x298>
    4eae:	f8 01       	movw	r30, r16
    4eb0:	60 81       	ld	r22, Z
    4eb2:	71 81       	ldd	r23, Z+1	; 0x01
    4eb4:	82 81       	ldd	r24, Z+2	; 0x02
    4eb6:	93 81       	ldd	r25, Z+3	; 0x03
    4eb8:	0c 5f       	subi	r16, 0xFC	; 252
    4eba:	1f 4f       	sbci	r17, 0xFF	; 255
    4ebc:	07 c0       	rjmp	.+14     	; 0x4ecc <vfprintf+0x2a6>
    4ebe:	f8 01       	movw	r30, r16
    4ec0:	60 81       	ld	r22, Z
    4ec2:	71 81       	ldd	r23, Z+1	; 0x01
    4ec4:	80 e0       	ldi	r24, 0x00	; 0
    4ec6:	90 e0       	ldi	r25, 0x00	; 0
    4ec8:	0e 5f       	subi	r16, 0xFE	; 254
    4eca:	1f 4f       	sbci	r17, 0xFF	; 255
    4ecc:	a2 01       	movw	r20, r4
    4ece:	0e 94 64 28 	call	0x50c8	; 0x50c8 <__ultoa_invert>
    4ed2:	78 2e       	mov	r7, r24
    4ed4:	74 18       	sub	r7, r4
    4ed6:	ff e7       	ldi	r31, 0x7F	; 127
    4ed8:	bf 22       	and	r11, r31
    4eda:	b6 fe       	sbrs	r11, 6
    4edc:	0b c0       	rjmp	.+22     	; 0x4ef4 <vfprintf+0x2ce>
    4ede:	2e ef       	ldi	r18, 0xFE	; 254
    4ee0:	b2 22       	and	r11, r18
    4ee2:	7e 14       	cp	r7, r14
    4ee4:	38 f4       	brcc	.+14     	; 0x4ef4 <vfprintf+0x2ce>
    4ee6:	b4 fe       	sbrs	r11, 4
    4ee8:	07 c0       	rjmp	.+14     	; 0x4ef8 <vfprintf+0x2d2>
    4eea:	b2 fc       	sbrc	r11, 2
    4eec:	05 c0       	rjmp	.+10     	; 0x4ef8 <vfprintf+0x2d2>
    4eee:	8f ee       	ldi	r24, 0xEF	; 239
    4ef0:	b8 22       	and	r11, r24
    4ef2:	02 c0       	rjmp	.+4      	; 0x4ef8 <vfprintf+0x2d2>
    4ef4:	a7 2c       	mov	r10, r7
    4ef6:	01 c0       	rjmp	.+2      	; 0x4efa <vfprintf+0x2d4>
    4ef8:	ae 2c       	mov	r10, r14
    4efa:	8b 2d       	mov	r24, r11
    4efc:	90 e0       	ldi	r25, 0x00	; 0
    4efe:	b4 fe       	sbrs	r11, 4
    4f00:	0d c0       	rjmp	.+26     	; 0x4f1c <vfprintf+0x2f6>
    4f02:	fe 01       	movw	r30, r28
    4f04:	e7 0d       	add	r30, r7
    4f06:	f1 1d       	adc	r31, r1
    4f08:	20 81       	ld	r18, Z
    4f0a:	20 33       	cpi	r18, 0x30	; 48
    4f0c:	19 f4       	brne	.+6      	; 0x4f14 <vfprintf+0x2ee>
    4f0e:	e9 ee       	ldi	r30, 0xE9	; 233
    4f10:	be 22       	and	r11, r30
    4f12:	09 c0       	rjmp	.+18     	; 0x4f26 <vfprintf+0x300>
    4f14:	a3 94       	inc	r10
    4f16:	b2 fe       	sbrs	r11, 2
    4f18:	06 c0       	rjmp	.+12     	; 0x4f26 <vfprintf+0x300>
    4f1a:	04 c0       	rjmp	.+8      	; 0x4f24 <vfprintf+0x2fe>
    4f1c:	86 78       	andi	r24, 0x86	; 134
    4f1e:	90 70       	andi	r25, 0x00	; 0
    4f20:	00 97       	sbiw	r24, 0x00	; 0
    4f22:	09 f0       	breq	.+2      	; 0x4f26 <vfprintf+0x300>
    4f24:	a3 94       	inc	r10
    4f26:	8b 2c       	mov	r8, r11
    4f28:	99 24       	eor	r9, r9
    4f2a:	b3 fc       	sbrc	r11, 3
    4f2c:	14 c0       	rjmp	.+40     	; 0x4f56 <vfprintf+0x330>
    4f2e:	b0 fe       	sbrs	r11, 0
    4f30:	0f c0       	rjmp	.+30     	; 0x4f50 <vfprintf+0x32a>
    4f32:	af 14       	cp	r10, r15
    4f34:	28 f4       	brcc	.+10     	; 0x4f40 <vfprintf+0x31a>
    4f36:	e7 2c       	mov	r14, r7
    4f38:	ef 0c       	add	r14, r15
    4f3a:	ea 18       	sub	r14, r10
    4f3c:	af 2c       	mov	r10, r15
    4f3e:	08 c0       	rjmp	.+16     	; 0x4f50 <vfprintf+0x32a>
    4f40:	e7 2c       	mov	r14, r7
    4f42:	06 c0       	rjmp	.+12     	; 0x4f50 <vfprintf+0x32a>
    4f44:	80 e2       	ldi	r24, 0x20	; 32
    4f46:	90 e0       	ldi	r25, 0x00	; 0
    4f48:	b6 01       	movw	r22, r12
    4f4a:	0e 94 38 28 	call	0x5070	; 0x5070 <fputc>
    4f4e:	a3 94       	inc	r10
    4f50:	af 14       	cp	r10, r15
    4f52:	c0 f3       	brcs	.-16     	; 0x4f44 <vfprintf+0x31e>
    4f54:	04 c0       	rjmp	.+8      	; 0x4f5e <vfprintf+0x338>
    4f56:	af 14       	cp	r10, r15
    4f58:	10 f4       	brcc	.+4      	; 0x4f5e <vfprintf+0x338>
    4f5a:	fa 18       	sub	r15, r10
    4f5c:	01 c0       	rjmp	.+2      	; 0x4f60 <vfprintf+0x33a>
    4f5e:	ff 24       	eor	r15, r15
    4f60:	84 fe       	sbrs	r8, 4
    4f62:	0f c0       	rjmp	.+30     	; 0x4f82 <vfprintf+0x35c>
    4f64:	80 e3       	ldi	r24, 0x30	; 48
    4f66:	90 e0       	ldi	r25, 0x00	; 0
    4f68:	b6 01       	movw	r22, r12
    4f6a:	0e 94 38 28 	call	0x5070	; 0x5070 <fputc>
    4f6e:	82 fe       	sbrs	r8, 2
    4f70:	1f c0       	rjmp	.+62     	; 0x4fb0 <vfprintf+0x38a>
    4f72:	81 fe       	sbrs	r8, 1
    4f74:	03 c0       	rjmp	.+6      	; 0x4f7c <vfprintf+0x356>
    4f76:	88 e5       	ldi	r24, 0x58	; 88
    4f78:	90 e0       	ldi	r25, 0x00	; 0
    4f7a:	10 c0       	rjmp	.+32     	; 0x4f9c <vfprintf+0x376>
    4f7c:	88 e7       	ldi	r24, 0x78	; 120
    4f7e:	90 e0       	ldi	r25, 0x00	; 0
    4f80:	0d c0       	rjmp	.+26     	; 0x4f9c <vfprintf+0x376>
    4f82:	c4 01       	movw	r24, r8
    4f84:	86 78       	andi	r24, 0x86	; 134
    4f86:	90 70       	andi	r25, 0x00	; 0
    4f88:	00 97       	sbiw	r24, 0x00	; 0
    4f8a:	91 f0       	breq	.+36     	; 0x4fb0 <vfprintf+0x38a>
    4f8c:	81 fc       	sbrc	r8, 1
    4f8e:	02 c0       	rjmp	.+4      	; 0x4f94 <vfprintf+0x36e>
    4f90:	80 e2       	ldi	r24, 0x20	; 32
    4f92:	01 c0       	rjmp	.+2      	; 0x4f96 <vfprintf+0x370>
    4f94:	8b e2       	ldi	r24, 0x2B	; 43
    4f96:	b7 fc       	sbrc	r11, 7
    4f98:	8d e2       	ldi	r24, 0x2D	; 45
    4f9a:	90 e0       	ldi	r25, 0x00	; 0
    4f9c:	b6 01       	movw	r22, r12
    4f9e:	0e 94 38 28 	call	0x5070	; 0x5070 <fputc>
    4fa2:	06 c0       	rjmp	.+12     	; 0x4fb0 <vfprintf+0x38a>
    4fa4:	80 e3       	ldi	r24, 0x30	; 48
    4fa6:	90 e0       	ldi	r25, 0x00	; 0
    4fa8:	b6 01       	movw	r22, r12
    4faa:	0e 94 38 28 	call	0x5070	; 0x5070 <fputc>
    4fae:	ea 94       	dec	r14
    4fb0:	7e 14       	cp	r7, r14
    4fb2:	c0 f3       	brcs	.-16     	; 0x4fa4 <vfprintf+0x37e>
    4fb4:	7a 94       	dec	r7
    4fb6:	f2 01       	movw	r30, r4
    4fb8:	e7 0d       	add	r30, r7
    4fba:	f1 1d       	adc	r31, r1
    4fbc:	80 81       	ld	r24, Z
    4fbe:	90 e0       	ldi	r25, 0x00	; 0
    4fc0:	b6 01       	movw	r22, r12
    4fc2:	0e 94 38 28 	call	0x5070	; 0x5070 <fputc>
    4fc6:	77 20       	and	r7, r7
    4fc8:	a9 f7       	brne	.-22     	; 0x4fb4 <vfprintf+0x38e>
    4fca:	06 c0       	rjmp	.+12     	; 0x4fd8 <vfprintf+0x3b2>
    4fcc:	80 e2       	ldi	r24, 0x20	; 32
    4fce:	90 e0       	ldi	r25, 0x00	; 0
    4fd0:	b6 01       	movw	r22, r12
    4fd2:	0e 94 38 28 	call	0x5070	; 0x5070 <fputc>
    4fd6:	fa 94       	dec	r15
    4fd8:	ff 20       	and	r15, r15
    4fda:	c1 f7       	brne	.-16     	; 0x4fcc <vfprintf+0x3a6>
    4fdc:	37 ce       	rjmp	.-914    	; 0x4c4c <vfprintf+0x26>
    4fde:	f6 01       	movw	r30, r12
    4fe0:	26 81       	ldd	r18, Z+6	; 0x06
    4fe2:	37 81       	ldd	r19, Z+7	; 0x07
    4fe4:	02 c0       	rjmp	.+4      	; 0x4fea <vfprintf+0x3c4>
    4fe6:	2f ef       	ldi	r18, 0xFF	; 255
    4fe8:	3f ef       	ldi	r19, 0xFF	; 255
    4fea:	c9 01       	movw	r24, r18
    4fec:	2c 96       	adiw	r28, 0x0c	; 12
    4fee:	e2 e1       	ldi	r30, 0x12	; 18
    4ff0:	0c 94 de 28 	jmp	0x51bc	; 0x51bc <__epilogue_restores__>

00004ff4 <__eerd_block_m644>:
    4ff4:	dc 01       	movw	r26, r24
    4ff6:	cb 01       	movw	r24, r22

00004ff8 <__eerd_blraw_m644>:
    4ff8:	fc 01       	movw	r30, r24
    4ffa:	f9 99       	sbic	0x1f, 1	; 31
    4ffc:	fe cf       	rjmp	.-4      	; 0x4ffa <__eerd_blraw_m644+0x2>
    4ffe:	06 c0       	rjmp	.+12     	; 0x500c <__eerd_blraw_m644+0x14>
    5000:	f2 bd       	out	0x22, r31	; 34
    5002:	e1 bd       	out	0x21, r30	; 33
    5004:	f8 9a       	sbi	0x1f, 0	; 31
    5006:	31 96       	adiw	r30, 0x01	; 1
    5008:	00 b4       	in	r0, 0x20	; 32
    500a:	0d 92       	st	X+, r0
    500c:	41 50       	subi	r20, 0x01	; 1
    500e:	50 40       	sbci	r21, 0x00	; 0
    5010:	b8 f7       	brcc	.-18     	; 0x5000 <__eerd_blraw_m644+0x8>
    5012:	08 95       	ret

00005014 <__eewr_block_m644>:
    5014:	dc 01       	movw	r26, r24
    5016:	cb 01       	movw	r24, r22
    5018:	03 c0       	rjmp	.+6      	; 0x5020 <__eewr_block_m644+0xc>
    501a:	2d 91       	ld	r18, X+
    501c:	0e 94 15 28 	call	0x502a	; 0x502a <__eewr_r18_m644>
    5020:	41 50       	subi	r20, 0x01	; 1
    5022:	50 40       	sbci	r21, 0x00	; 0
    5024:	d0 f7       	brcc	.-12     	; 0x501a <__eewr_block_m644+0x6>
    5026:	08 95       	ret

00005028 <__eewr_byte_m644>:
    5028:	26 2f       	mov	r18, r22

0000502a <__eewr_r18_m644>:
    502a:	f9 99       	sbic	0x1f, 1	; 31
    502c:	fe cf       	rjmp	.-4      	; 0x502a <__eewr_r18_m644>
    502e:	1f ba       	out	0x1f, r1	; 31
    5030:	92 bd       	out	0x22, r25	; 34
    5032:	81 bd       	out	0x21, r24	; 33
    5034:	20 bd       	out	0x20, r18	; 32
    5036:	0f b6       	in	r0, 0x3f	; 63
    5038:	f8 94       	cli
    503a:	fa 9a       	sbi	0x1f, 2	; 31
    503c:	f9 9a       	sbi	0x1f, 1	; 31
    503e:	0f be       	out	0x3f, r0	; 63
    5040:	01 96       	adiw	r24, 0x01	; 1
    5042:	08 95       	ret

00005044 <strnlen_P>:
    5044:	fc 01       	movw	r30, r24
    5046:	05 90       	lpm	r0, Z+
    5048:	61 50       	subi	r22, 0x01	; 1
    504a:	70 40       	sbci	r23, 0x00	; 0
    504c:	01 10       	cpse	r0, r1
    504e:	d8 f7       	brcc	.-10     	; 0x5046 <strnlen_P+0x2>
    5050:	80 95       	com	r24
    5052:	90 95       	com	r25
    5054:	8e 0f       	add	r24, r30
    5056:	9f 1f       	adc	r25, r31
    5058:	08 95       	ret

0000505a <strnlen>:
    505a:	fc 01       	movw	r30, r24
    505c:	61 50       	subi	r22, 0x01	; 1
    505e:	70 40       	sbci	r23, 0x00	; 0
    5060:	01 90       	ld	r0, Z+
    5062:	01 10       	cpse	r0, r1
    5064:	d8 f7       	brcc	.-10     	; 0x505c <strnlen+0x2>
    5066:	80 95       	com	r24
    5068:	90 95       	com	r25
    506a:	8e 0f       	add	r24, r30
    506c:	9f 1f       	adc	r25, r31
    506e:	08 95       	ret

00005070 <fputc>:
    5070:	0f 93       	push	r16
    5072:	1f 93       	push	r17
    5074:	cf 93       	push	r28
    5076:	df 93       	push	r29
    5078:	8c 01       	movw	r16, r24
    507a:	eb 01       	movw	r28, r22
    507c:	8b 81       	ldd	r24, Y+3	; 0x03
    507e:	81 ff       	sbrs	r24, 1
    5080:	1b c0       	rjmp	.+54     	; 0x50b8 <fputc+0x48>
    5082:	82 ff       	sbrs	r24, 2
    5084:	0d c0       	rjmp	.+26     	; 0x50a0 <fputc+0x30>
    5086:	2e 81       	ldd	r18, Y+6	; 0x06
    5088:	3f 81       	ldd	r19, Y+7	; 0x07
    508a:	8c 81       	ldd	r24, Y+4	; 0x04
    508c:	9d 81       	ldd	r25, Y+5	; 0x05
    508e:	28 17       	cp	r18, r24
    5090:	39 07       	cpc	r19, r25
    5092:	64 f4       	brge	.+24     	; 0x50ac <fputc+0x3c>
    5094:	e8 81       	ld	r30, Y
    5096:	f9 81       	ldd	r31, Y+1	; 0x01
    5098:	01 93       	st	Z+, r16
    509a:	f9 83       	std	Y+1, r31	; 0x01
    509c:	e8 83       	st	Y, r30
    509e:	06 c0       	rjmp	.+12     	; 0x50ac <fputc+0x3c>
    50a0:	e8 85       	ldd	r30, Y+8	; 0x08
    50a2:	f9 85       	ldd	r31, Y+9	; 0x09
    50a4:	80 2f       	mov	r24, r16
    50a6:	09 95       	icall
    50a8:	00 97       	sbiw	r24, 0x00	; 0
    50aa:	31 f4       	brne	.+12     	; 0x50b8 <fputc+0x48>
    50ac:	8e 81       	ldd	r24, Y+6	; 0x06
    50ae:	9f 81       	ldd	r25, Y+7	; 0x07
    50b0:	01 96       	adiw	r24, 0x01	; 1
    50b2:	9f 83       	std	Y+7, r25	; 0x07
    50b4:	8e 83       	std	Y+6, r24	; 0x06
    50b6:	02 c0       	rjmp	.+4      	; 0x50bc <fputc+0x4c>
    50b8:	0f ef       	ldi	r16, 0xFF	; 255
    50ba:	1f ef       	ldi	r17, 0xFF	; 255
    50bc:	c8 01       	movw	r24, r16
    50be:	df 91       	pop	r29
    50c0:	cf 91       	pop	r28
    50c2:	1f 91       	pop	r17
    50c4:	0f 91       	pop	r16
    50c6:	08 95       	ret

000050c8 <__ultoa_invert>:
    50c8:	fa 01       	movw	r30, r20
    50ca:	aa 27       	eor	r26, r26
    50cc:	28 30       	cpi	r18, 0x08	; 8
    50ce:	51 f1       	breq	.+84     	; 0x5124 <__ultoa_invert+0x5c>
    50d0:	20 31       	cpi	r18, 0x10	; 16
    50d2:	81 f1       	breq	.+96     	; 0x5134 <__ultoa_invert+0x6c>
    50d4:	e8 94       	clt
    50d6:	6f 93       	push	r22
    50d8:	6e 7f       	andi	r22, 0xFE	; 254
    50da:	6e 5f       	subi	r22, 0xFE	; 254
    50dc:	7f 4f       	sbci	r23, 0xFF	; 255
    50de:	8f 4f       	sbci	r24, 0xFF	; 255
    50e0:	9f 4f       	sbci	r25, 0xFF	; 255
    50e2:	af 4f       	sbci	r26, 0xFF	; 255
    50e4:	b1 e0       	ldi	r27, 0x01	; 1
    50e6:	3e d0       	rcall	.+124    	; 0x5164 <__ultoa_invert+0x9c>
    50e8:	b4 e0       	ldi	r27, 0x04	; 4
    50ea:	3c d0       	rcall	.+120    	; 0x5164 <__ultoa_invert+0x9c>
    50ec:	67 0f       	add	r22, r23
    50ee:	78 1f       	adc	r23, r24
    50f0:	89 1f       	adc	r24, r25
    50f2:	9a 1f       	adc	r25, r26
    50f4:	a1 1d       	adc	r26, r1
    50f6:	68 0f       	add	r22, r24
    50f8:	79 1f       	adc	r23, r25
    50fa:	8a 1f       	adc	r24, r26
    50fc:	91 1d       	adc	r25, r1
    50fe:	a1 1d       	adc	r26, r1
    5100:	6a 0f       	add	r22, r26
    5102:	71 1d       	adc	r23, r1
    5104:	81 1d       	adc	r24, r1
    5106:	91 1d       	adc	r25, r1
    5108:	a1 1d       	adc	r26, r1
    510a:	20 d0       	rcall	.+64     	; 0x514c <__ultoa_invert+0x84>
    510c:	09 f4       	brne	.+2      	; 0x5110 <__ultoa_invert+0x48>
    510e:	68 94       	set
    5110:	3f 91       	pop	r19
    5112:	2a e0       	ldi	r18, 0x0A	; 10
    5114:	26 9f       	mul	r18, r22
    5116:	11 24       	eor	r1, r1
    5118:	30 19       	sub	r19, r0
    511a:	30 5d       	subi	r19, 0xD0	; 208
    511c:	31 93       	st	Z+, r19
    511e:	de f6       	brtc	.-74     	; 0x50d6 <__ultoa_invert+0xe>
    5120:	cf 01       	movw	r24, r30
    5122:	08 95       	ret
    5124:	46 2f       	mov	r20, r22
    5126:	47 70       	andi	r20, 0x07	; 7
    5128:	40 5d       	subi	r20, 0xD0	; 208
    512a:	41 93       	st	Z+, r20
    512c:	b3 e0       	ldi	r27, 0x03	; 3
    512e:	0f d0       	rcall	.+30     	; 0x514e <__ultoa_invert+0x86>
    5130:	c9 f7       	brne	.-14     	; 0x5124 <__ultoa_invert+0x5c>
    5132:	f6 cf       	rjmp	.-20     	; 0x5120 <__ultoa_invert+0x58>
    5134:	46 2f       	mov	r20, r22
    5136:	4f 70       	andi	r20, 0x0F	; 15
    5138:	40 5d       	subi	r20, 0xD0	; 208
    513a:	4a 33       	cpi	r20, 0x3A	; 58
    513c:	18 f0       	brcs	.+6      	; 0x5144 <__ultoa_invert+0x7c>
    513e:	49 5d       	subi	r20, 0xD9	; 217
    5140:	31 fd       	sbrc	r19, 1
    5142:	40 52       	subi	r20, 0x20	; 32
    5144:	41 93       	st	Z+, r20
    5146:	02 d0       	rcall	.+4      	; 0x514c <__ultoa_invert+0x84>
    5148:	a9 f7       	brne	.-22     	; 0x5134 <__ultoa_invert+0x6c>
    514a:	ea cf       	rjmp	.-44     	; 0x5120 <__ultoa_invert+0x58>
    514c:	b4 e0       	ldi	r27, 0x04	; 4
    514e:	a6 95       	lsr	r26
    5150:	97 95       	ror	r25
    5152:	87 95       	ror	r24
    5154:	77 95       	ror	r23
    5156:	67 95       	ror	r22
    5158:	ba 95       	dec	r27
    515a:	c9 f7       	brne	.-14     	; 0x514e <__ultoa_invert+0x86>
    515c:	00 97       	sbiw	r24, 0x00	; 0
    515e:	61 05       	cpc	r22, r1
    5160:	71 05       	cpc	r23, r1
    5162:	08 95       	ret
    5164:	9b 01       	movw	r18, r22
    5166:	ac 01       	movw	r20, r24
    5168:	0a 2e       	mov	r0, r26
    516a:	06 94       	lsr	r0
    516c:	57 95       	ror	r21
    516e:	47 95       	ror	r20
    5170:	37 95       	ror	r19
    5172:	27 95       	ror	r18
    5174:	ba 95       	dec	r27
    5176:	c9 f7       	brne	.-14     	; 0x516a <__ultoa_invert+0xa2>
    5178:	62 0f       	add	r22, r18
    517a:	73 1f       	adc	r23, r19
    517c:	84 1f       	adc	r24, r20
    517e:	95 1f       	adc	r25, r21
    5180:	a0 1d       	adc	r26, r0
    5182:	08 95       	ret

00005184 <__prologue_saves__>:
    5184:	2f 92       	push	r2
    5186:	3f 92       	push	r3
    5188:	4f 92       	push	r4
    518a:	5f 92       	push	r5
    518c:	6f 92       	push	r6
    518e:	7f 92       	push	r7
    5190:	8f 92       	push	r8
    5192:	9f 92       	push	r9
    5194:	af 92       	push	r10
    5196:	bf 92       	push	r11
    5198:	cf 92       	push	r12
    519a:	df 92       	push	r13
    519c:	ef 92       	push	r14
    519e:	ff 92       	push	r15
    51a0:	0f 93       	push	r16
    51a2:	1f 93       	push	r17
    51a4:	cf 93       	push	r28
    51a6:	df 93       	push	r29
    51a8:	cd b7       	in	r28, 0x3d	; 61
    51aa:	de b7       	in	r29, 0x3e	; 62
    51ac:	ca 1b       	sub	r28, r26
    51ae:	db 0b       	sbc	r29, r27
    51b0:	0f b6       	in	r0, 0x3f	; 63
    51b2:	f8 94       	cli
    51b4:	de bf       	out	0x3e, r29	; 62
    51b6:	0f be       	out	0x3f, r0	; 63
    51b8:	cd bf       	out	0x3d, r28	; 61
    51ba:	09 94       	ijmp

000051bc <__epilogue_restores__>:
    51bc:	2a 88       	ldd	r2, Y+18	; 0x12
    51be:	39 88       	ldd	r3, Y+17	; 0x11
    51c0:	48 88       	ldd	r4, Y+16	; 0x10
    51c2:	5f 84       	ldd	r5, Y+15	; 0x0f
    51c4:	6e 84       	ldd	r6, Y+14	; 0x0e
    51c6:	7d 84       	ldd	r7, Y+13	; 0x0d
    51c8:	8c 84       	ldd	r8, Y+12	; 0x0c
    51ca:	9b 84       	ldd	r9, Y+11	; 0x0b
    51cc:	aa 84       	ldd	r10, Y+10	; 0x0a
    51ce:	b9 84       	ldd	r11, Y+9	; 0x09
    51d0:	c8 84       	ldd	r12, Y+8	; 0x08
    51d2:	df 80       	ldd	r13, Y+7	; 0x07
    51d4:	ee 80       	ldd	r14, Y+6	; 0x06
    51d6:	fd 80       	ldd	r15, Y+5	; 0x05
    51d8:	0c 81       	ldd	r16, Y+4	; 0x04
    51da:	1b 81       	ldd	r17, Y+3	; 0x03
    51dc:	aa 81       	ldd	r26, Y+2	; 0x02
    51de:	b9 81       	ldd	r27, Y+1	; 0x01
    51e0:	ce 0f       	add	r28, r30
    51e2:	d1 1d       	adc	r29, r1
    51e4:	0f b6       	in	r0, 0x3f	; 63
    51e6:	f8 94       	cli
    51e8:	de bf       	out	0x3e, r29	; 62
    51ea:	0f be       	out	0x3f, r0	; 63
    51ec:	cd bf       	out	0x3d, r28	; 61
    51ee:	ed 01       	movw	r28, r26
    51f0:	08 95       	ret

000051f2 <_exit>:
    51f2:	f8 94       	cli

000051f4 <__stop_program>:
    51f4:	ff cf       	rjmp	.-2      	; 0x51f4 <__stop_program>
